(dp1
S'output'
p2
S"<type 'exceptions.KeyError'> 'truncate'"
p3
sS'layer'
p4
S'/Users/cmorikuni/Desktop/web2py/web2py.app/Contents/Resources/applications/RegressionReport/controllers/default.py'
p5
sS'code'
p6
S'# -*- coding: utf-8 -*-\n# this file is released under public domain and you can use without limitations\n\n#########################################################################\n## This is a sample controller\n## - index is the default action of any application\n## - user is required for authentication and authorization\n## - download is for downloading files uploaded in the db (does streaming)\n## - call exposes all registered services (none by default)\n#########################################################################\nfrom loadxls import load\nimport datetime\n\n\ndef index():\n    # Today\n    today = datetime.datetime.now().strftime(\'%Y.%m.%d\')\n    \n    # Grid\n    db.reviews.id.readable=False # Since we do not want to expose the id field on the grid\n    db.reviews.id.writable=False\n    db.reviews.failureId.readable=False\n    db.reviews.failureId.writable=False\n    db.reviews.reviewDate.writable=False\n    db.runs.runLink.readable=False\n    db.testcases.testcaseLink.readable=False\n    db.failures.testcaseId.readable=False\n    db.failures.failLink.readable=False\n\n    #Define the query object. Here we are pulling all contacts having date of birth less than 18 Nov 1990\n    queryStr = (db.reviews.failureId == db.failures.id)&(db.failures.testcaseId == db.testcases.id)&(db.failures.runId == db.runs.id)&(db.failures.moduleId == db.modules.id)&(db.runs.jobId == db.jobs.id)\n    query=(queryStr)\n\n    #Define the fields to show on grid. Note: (you need to specify id field in fields section in 1.99.2\n    # this is not required in later versions)\n    fields = (db.jobs.jobName, db.jobs.beingFixed,\n              db.runs.build, db.runs.date, db.runs.runLink,\n              db.modules.moduleName, \n              db.testcases.testcaseName, db.testcases.testcaseLink,\n              db.failures.testcaseId, db.failures.failStatus, db.failures.failLink,\n              db.reviews.id, db.reviews.failureId, db.reviews.reviewDate, db.reviews.user, db.reviews.failure, db.reviews.occurrence, db.reviews.reason, db.reviews.action, db.reviews.notes)\n\n    db.jobs.jobName.represent = lambda val,row: A(val, _href=row.runs.runLink) if row.runs.runLink is not None else val\n    db.testcases.testcaseName.represent = lambda val,row: A(val, _href=row.testcases.testcaseLink) if row.testcases.testcaseLink is not None else val\n    db.failures.failStatus.represent = lambda val,row: A(val, _href=row.failures.failLink) if row.failures.failLink is not None else val\n    \n    #Define headers as tuples/dictionaries\n    headers = {\'jobs.jobName\': \'Job Name\',\n               \'jobs.beingFixed\': \'Fix\',\n               \'runs.build\': \'Build\',\n               \'runs.date\': \'Date\',\n               \'modules.moduleName\': \'Module\',\n               \'testcases.testcaseName\': \'Test Case\',\n               \'failures.failStatus\': \'\',\n               \'reviews.reviewDate\': \'Review Date\',\n               \'reviews.user\': \'User\',\n               \'reviews.failure\': \'Failure\',\n               \'reviews.occurrence\': \'Occurrence\',\n               \'reviews.reason\': \'Reason\',\n               \'reviews.action\': \'Action\',\n               \'reviews.notes\': \'Notes\'}\n    \'\'\'{\'jobs.jobName\':{\'label\':\'Job Name\', \'class\':\'th\', \'width\':\'150\', \'truncate\':25, \'selected\':False}, \n               \'jobs.beingFixed\':{\'label\':\'User\', \'class\':\'th\', \'width\':\'30\', \'truncate\':25, \'selected\':False}, \n               \'reviews.failure\':{\'label\':\'Failure\', \'class\':\'th\', \'width\':\'500\', \'truncate\':250, \'selected\':False}, \n               \'reviews.occurrence\':{\'label\':\'Occurrence\', \'class\':\'th\', \'width\':\'50\', \'truncate\':15, \'selected\':False}, \n               \'reviews.reason\':{\'label\':\'Reason\', \'class\':\'th\', \'width\':\'500\', \'truncate\':100, \'selected\':False}, \n               \'reviews.action\':{\'label\':\'Action\', \'class\':\'th\', \'width\':\'65\', \'truncate\':50, \'selected\':False}, \n               \'reviews.notes\':{\'label\':\'Notes\', \'class\':\'th\', \'width\':\'500\', \'truncate\':500, \'selected\':False}}\'\'\'\n    \n    #Let\'s specify a default sort order\n    default_sort_order=[~db.runs.date|~db.reviews.reviewDate]\n\n    # Export classes\n    exportclasses=dict(\n        csv_with_hidden_cols=False,\n        xml=False,\n        html=False,\n        csv=False,\n        json=False,\n        tsv_with_hidden_cols=False,\n        tsv=False)\n    \n    # Links\n    links = [{\'header\':\'#\', \'body\':lambda row: db(db.failures.testcaseId == row.failures.testcaseId).count()},\n             lambda row: linksHelper(row)]\n    \n    #Creating the grid object\n    grid = SQLFORM.grid(query=query, fields=fields, field_id=db.reviews.id, headers=headers, orderby=default_sort_order, groupby=db.reviews.failureId, details=False, links=links, create=False, deletable=False, editable=False, exportclasses=exportclasses, maxtextlength=250, paginate=25, user_signature=False)\n\n    form=FORM(\'Load Report:\',\n        INPUT(_type=\'file\', _name=\'reportFile\', requires=IS_NOT_EMPTY()),\n        INPUT(_type=\'submit\', _value=\'Load Report\'))\n\n    loaded = None\n    if form.accepts(request,session):\n        response.flash = \'form accepted\'\n        filename = request.vars.reportFile.filename\n        data = request.vars.reportFile.file.read()\n        xlsLoader = load.XlsLoader()\n        loadComplete = xlsLoader.load(filename, data)\n        if loadComplete is not None:\n            loaded = \'File \' + filename + \' is loaded\'\n        else:\n            loaded = \'File \' + filename + \' failed to load\'\n    elif form.errors:\n        response.flash = \'form has errors\'\n    \n    return dict(form=form, loaded=loaded, grid=grid, today=today)\n\n\ndef linksHelper(row):\n    html_code = A(\'Filter\',_href=URL("default","index",vars={\'keywords\' : \'testcases.testcaseName="\' + row.testcases.testcaseName + \'"\' }, url_encode=True))\n    html_code = html_code + BR()\n    html_code = html_code + A(\'View\',_href=URL("default","view",args=[row.reviews.failureId]))\n    html_code = html_code + BR()\n    html_code = html_code + A(\'Create\',_href=URL("default","create",args=[row.reviews.failureId]))\n    return html_code\n\n\ndef tableView (failId):\n    reviewIds = db(db.reviews.failureId==failId).select(db.reviews.id, db.reviews.failureId, db.reviews.reviewDate, db.reviews.user,db.reviews.failure, db.reviews.occurrence, db.reviews.reason, db.reviews.action, db.reviews.notes, orderby=~db.reviews.reviewDate)\n    if len(reviewIds) == 1 and reviewIds[0].failure == \'\':\n        row = reviewIds[0]\n        redirect(URL("default", "edit", args=[row.id, row.failureId, True]))\n    \n    columns = [\'reviews.reviewDate\', \'reviews.user\', \'reviews.failure\', \'reviews.occurrence\', \'reviews.reason\', \'reviews.action\', \'reviews.notes\']\n\n    headers = {\'reviews.reviewDate\':{\'label\':\'Date\', \'class\':\'th\', \'width\':\'150\', \'truncate\':25, \'selected\':False}, \n               \'reviews.user\':{\'label\':\'User\', \'class\':\'th\', \'width\':\'30\', \'truncate\':25, \'selected\':False}, \n               \'reviews.failure\':{\'label\':\'Failure\', \'class\':\'th\', \'width\':\'500\', \'selected\':False}, \n               \'reviews.occurrence\':{\'label\':\'Occurrence\', \'class\':\'th\', \'width\':\'50\', \'truncate\':15, \'selected\':False}, \n               \'reviews.reason\':{\'label\':\'Reason\', \'class\':\'th\', \'width\':\'500\', \'selected\':False}, \n               \'reviews.action\':{\'label\':\'Action\', \'class\':\'th\', \'width\':\'65\', \'truncate\':50, \'selected\':False}, \n               \'reviews.notes\':{\'label\':\'Notes\', \'class\':\'th\', \'width\':\'500\', \'selected\':False}}\n    \n    extracolumns = [{\'label\':\'\',\n                \'class\': \'\', #class name of the header\n                \'width\':\'\', #width in pixels or %\n                \'content\':lambda row, rc: A(\'Edit\',_href=URL("default", "edit", args=[row.id, row.failureId])),\n                \'selected\': False #agregate class selected to this column\n                }]\n    \n    form = SQLTABLE(reviewIds, headers=headers, columns=columns, extracolumns=extracolumns)\n    return form\n\n\ndef view():\n    failureId = request.args(0)\n    form = tableView(failureId)\n    return dict(form=form)\n\ndef create():\n    failureId = request.args(0)\n    table = tableView(failureId)\n    \n    db.reviews.failureId.default = failureId\n    db.reviews.reviewDate.default = datetime.datetime.now().strftime(\'%Y.%m.%d %H:%M:%S\')\n    db.reviews.id.readable=False\n    db.reviews.id.writable=False\n    db.reviews.failureId.readable=False\n    db.reviews.failureId.writable=False\n    db.reviews.reviewDate.writable=False\n    form = SQLFORM(db.reviews)\n    if form.process().accepted:\n        response.flash = \'form accepted\'\n        table = tableView(failureId)\n    elif form.errors:\n        response.flash = \'form has errors\'\n    else:\n        response.flash = \'please fill the form\'\n    \n    return dict(form=form, table=table)\n\n\ndef edit():\n    hideTable = False\n    reviewId = request.args(0)\n    failureId = request.args(1)\n    if len(request.args) > 2:\n        hideTable = request.args(2)\n       \n    table = \'\'\n    if hideTable == False:\n        table = tableView(failureId)\n    \n    review = db.reviews(reviewId) or redirect(URL(\'error\'))\n    \n    db.reviews.id.readable=False # Since we do not want to expose the id field on the grid\n    db.reviews.id.writable=False\n    db.reviews.failureId.readable=False\n    db.reviews.failureId.writable=False\n    db.reviews.reviewDate.writable=False\n    form = SQLFORM(db.reviews, review, deletable=False)\n    if form.validate():\n        if form.deleted:\n            db(db.reviews.id==reviewId).delete()\n            redirect(URL(\'index\'))\n        else:\n            review.update_record(**dict(form.vars))\n            response.flash = \'records changed\'\n            table = tableView(failureId)\n\n    return dict(form=form, table=table)\n\n\ndef user():\n    """\n    exposes:\n    http://..../[app]/default/user/login\n    http://..../[app]/default/user/logout\n    http://..../[app]/default/user/register\n    http://..../[app]/default/user/profile\n    http://..../[app]/default/user/retrieve_password\n    http://..../[app]/default/user/change_password\n    http://..../[app]/default/user/manage_users (requires membership in\n    use @auth.requires_login()\n        @auth.requires_membership(\'group name\')\n        @auth.requires_permission(\'read\',\'table name\',record_id)\n    to decorate functions that need access control\n    """\n    return dict(form=auth())\n\n@cache.action()\ndef download():\n    """\n    allows downloading of uploaded files\n    http://..../[app]/default/download/[filename]\n    """\n    return response.download(request, db)\n\n\ndef call():\n    """\n    exposes services. for example:\n    http://..../[app]/default/call/jsonrpc\n    decorate with @services.jsonrpc the functions to expose\n    supports xml, json, xmlrpc, jsonrpc, amfrpc, rss, csv\n    """\n    return service()\n\n\n@auth.requires_signature()\ndef data():\n    """\n    http://..../[app]/default/data/tables\n    http://..../[app]/default/data/create/[table]\n    http://..../[app]/default/data/read/[table]/[id]\n    http://..../[app]/default/data/update/[table]/[id]\n    http://..../[app]/default/data/delete/[table]/[id]\n    http://..../[app]/default/data/select/[table]\n    http://..../[app]/default/data/search/[table]\n    but URLs must be signed, i.e. linked with\n      A(\'table\',_href=URL(\'data/tables\',user_signature=True))\n    or with the signed load operator\n      LOAD(\'default\',\'data.load\',args=\'tables\',ajax=True,user_signature=True)\n    """\n    return dict(form=crud())\n\nresponse._vars=response._caller(view)\n'
p7
sS'snapshot'
p8
(dp9
S'exception'
p10
(dp11
S'__hash__'
p12
S"<method-wrapper '__hash__' of exceptions.KeyError object>"
p13
sS'__setattr__'
p14
S"<method-wrapper '__setattr__' of exceptions.KeyError object>"
p15
sS'__reduce_ex__'
p16
S'<built-in method __reduce_ex__ of exceptions.KeyError object>'
p17
sS'__getslice__'
p18
S"<method-wrapper '__getslice__' of exceptions.KeyError object>"
p19
sS'__getitem__'
p20
S"<method-wrapper '__getitem__' of exceptions.KeyError object>"
p21
sS'__setstate__'
p22
S'<built-in method __setstate__ of exceptions.KeyError object>'
p23
sS'args'
p24
S"('truncate',)"
p25
sS'__reduce__'
p26
S'<built-in method __reduce__ of exceptions.KeyError object>'
p27
sS'__str__'
p28
S"<method-wrapper '__str__' of exceptions.KeyError object>"
p29
sS'__format__'
p30
S'<built-in method __format__ of exceptions.KeyError object>'
p31
sS'__getattribute__'
p32
S"<method-wrapper '__getattribute__' of exceptions.KeyError object>"
p33
sS'__class__'
p34
S"<type 'exceptions.KeyError'>"
p35
sS'__unicode__'
p36
S'<built-in method __unicode__ of exceptions.KeyError object>'
p37
sS'__delattr__'
p38
S"<method-wrapper '__delattr__' of exceptions.KeyError object>"
p39
sS'__subclasshook__'
p40
S'<built-in method __subclasshook__ of type object>'
p41
sS'__repr__'
p42
S"<method-wrapper '__repr__' of exceptions.KeyError object>"
p43
sS'__dict__'
p44
S'{}'
p45
sS'__sizeof__'
p46
S'<built-in method __sizeof__ of exceptions.KeyError object>'
p47
sS'__doc__'
p48
S"'Mapping key not found.'"
p49
sS'__init__'
p50
S"<method-wrapper '__init__' of exceptions.KeyError object>"
p51
sS'__new__'
p52
S'<built-in method __new__ of type object>'
p53
ssS'evalue'
p54
S"'truncate'"
p55
sS'request'
p56
cgluon.html
XML_unpickle
p57
(S's@]\x00\x00<div><table><tr><td style="font-weight:bold;vertical-align:top;">ajax</td><td style="vertical-align:top;">:</td><td><div>False</div></td></tr><tr><td style="font-weight:bold;vertical-align:top;">application</td><td style="vertical-align:top;">:</td><td><div>RegressionReport</div></td></tr><tr><td style="font-weight:bold;vertical-align:top;">args</td><td style="vertical-align:top;">:</td><td><div><table><tr><td><div>126</div></td></tr></table></div></td></tr><tr><td style="font-weight:bold;vertical-align:top;">cid</td><td style="vertical-align:top;">:</td><td><div>None</div></td></tr><tr><td style="font-weight:bold;vertical-align:top;">client</td><td style="vertical-align:top;">:</td><td><div>127.0.0.1</div></td></tr><tr><td style="font-weight:bold;vertical-align:top;">controller</td><td style="vertical-align:top;">:</td><td><div>default</div></td></tr><tr><td style="font-weight:bold;vertical-align:top;">cookies</td><td style="vertical-align:top;">:</td><td><div><table><tr><td style="font-weight:bold;vertical-align:top;">session_id_admin</td><td style="vertical-align:top;">:</td><td><div>127.0.0.1-f62f41d2-67ee-4db8-ade0-2830baf111ef<table><tr><td style="font-weight:bold;vertical-align:top;">comment</td><td style="vertical-align:top;">:</td><td><div></div></td></tr><tr><td style="font-weight:bold;vertical-align:top;">domain</td><td style="vertical-align:top;">:</td><td><div></div></td></tr><tr><td style="font-weight:bold;vertical-align:top;">expires</td><td style="vertical-align:top;">:</td><td><div></div></td></tr><tr><td style="font-weight:bold;vertical-align:top;">httponly</td><td style="vertical-align:top;">:</td><td><div></div></td></tr><tr><td style="font-weight:bold;vertical-align:top;">max-age</td><td style="vertical-align:top;">:</td><td><div></div></td></tr><tr><td style="font-weight:bold;vertical-align:top;">path</td><td style="vertical-align:top;">:</td><td><div></div></td></tr><tr><td style="font-weight:bold;vertical-align:top;">secure</td><td style="vertical-align:top;">:</td><td><div></div></td></tr><tr><td style="font-weight:bold;vertical-align:top;">version</td><td style="vertical-align:top;">:</td><td><div></div></td></tr></table></div></td></tr><tr><td style="font-weight:bold;vertical-align:top;">session_id_regressionreport</td><td style="vertical-align:top;">:</td><td><div>127.0.0.1-f7b81319-054a-42b3-a5a8-8f1bb48b6334<table><tr><td style="font-weight:bold;vertical-align:top;">comment</td><td style="vertical-align:top;">:</td><td><div></div></td></tr><tr><td style="font-weight:bold;vertical-align:top;">domain</td><td style="vertical-align:top;">:</td><td><div></div></td></tr><tr><td style="font-weight:bold;vertical-align:top;">expires</td><td style="vertical-align:top;">:</td><td><div></div></td></tr><tr><td style="font-weight:bold;vertical-align:top;">httponly</td><td style="vertical-align:top;">:</td><td><div></div></td></tr><tr><td style="font-weight:bold;vertical-align:top;">max-age</td><td style="vertical-align:top;">:</td><td><div></div></td></tr><tr><td style="font-weight:bold;vertical-align:top;">path</td><td style="vertical-align:top;">:</td><td><div></div></td></tr><tr><td style="font-weight:bold;vertical-align:top;">secure</td><td style="vertical-align:top;">:</td><td><div></div></td></tr><tr><td style="font-weight:bold;vertical-align:top;">version</td><td style="vertical-align:top;">:</td><td><div></div></td></tr></table></div></td></tr><tr><td style="font-weight:bold;vertical-align:top;">session_id_welcome</td><td style="vertical-align:top;">:</td><td><div>127.0.0.1-d5d13d7e-7b18-4723-819a-32096c6bfd94<table><tr><td style="font-weight:bold;vertical-align:top;">comment</td><td style="vertical-align:top;">:</td><td><div></div></td></tr><tr><td style="font-weight:bold;vertical-align:top;">domain</td><td style="vertical-align:top;">:</td><td><div></div></td></tr><tr><td style="font-weight:bold;vertical-align:top;">expires</td><td style="vertical-align:top;">:</td><td><div></div></td></tr><tr><td style="font-weight:bold;vertical-align:top;">httponly</td><td style="vertical-align:top;">:</td><td><div></div></td></tr><tr><td style="font-weight:bold;vertical-align:top;">max-age</td><td style="vertical-align:top;">:</td><td><div></div></td></tr><tr><td style="font-weight:bold;vertical-align:top;">path</td><td style="vertical-align:top;">:</td><td><div></div></td></tr><tr><td style="font-weight:bold;vertical-align:top;">secure</td><td style="vertical-align:top;">:</td><td><div></div></td></tr><tr><td style="font-weight:bold;vertical-align:top;">version</td><td style="vertical-align:top;">:</td><td><div></div></td></tr></table></div></td></tr></table></div></td></tr><tr><td style="font-weight:bold;vertical-align:top;">env</td><td style="vertical-align:top;">:</td><td><div><table><tr><td style="font-weight:bold;vertical-align:top;">HTTP_ACCEPT</td><td style="vertical-align:top;">:</td><td><div>text/html,application/xhtml+xml,application/xml;q=0.9,image/webp,*/*;q=0.8</div></td></tr><tr><td style="font-weight:bold;vertical-align:top;">HTTP_ACCEPT_ENCODING</td><td style="vertical-align:top;">:</td><td><div>gzip,deflate,sdch</div></td></tr><tr><td style="font-weight:bold;vertical-align:top;">HTTP_ACCEPT_LANGUAGE</td><td style="vertical-align:top;">:</td><td><div>en-US,en;q=0.8</div></td></tr><tr><td style="font-weight:bold;vertical-align:top;">HTTP_CACHE_CONTROL</td><td style="vertical-align:top;">:</td><td><div>max-age=0</div></td></tr><tr><td style="font-weight:bold;vertical-align:top;">HTTP_CONNECTION</td><td style="vertical-align:top;">:</td><td><div>keep-alive</div></td></tr><tr><td style="font-weight:bold;vertical-align:top;">HTTP_COOKIE</td><td style="vertical-align:top;">:</td><td><div>session_id_welcome=127.0.0.1-d5d13d7e-7b18-4723-819a-32096c6bfd94; session_id_regressionreport=127.0.0.1-f7b81319-054a-42b3-a5a8-8f1bb48b6334; session_id_admin=127.0.0.1-f62f41d2-67ee-4db8-ade0-2830baf111ef</div></td></tr><tr><td style="font-weight:bold;vertical-align:top;">HTTP_HOST</td><td style="vertical-align:top;">:</td><td><div>127.0.0.1:8000</div></td></tr><tr><td style="font-weight:bold;vertical-align:top;">HTTP_REFERER</td><td style="vertical-align:top;">:</td><td><div>http://127.0.0.1:8000/RegressionReport</div></td></tr><tr><td style="font-weight:bold;vertical-align:top;">HTTP_USER_AGENT</td><td style="vertical-align:top;">:</td><td><div>Mozilla/5.0 (Macintosh; Intel Mac OS X 10_9_2) AppleWebKit/537.36 (KHTML, like Gecko) Chrome/35.0.1916.153 Safari/537.36</div></td></tr><tr><td style="font-weight:bold;vertical-align:top;">PATH_INFO</td><td style="vertical-align:top;">:</td><td><div>/RegressionReport/default/view/126</div></td></tr><tr><td style="font-weight:bold;vertical-align:top;">QUERY_STRING</td><td style="vertical-align:top;">:</td><td><div></div></td></tr><tr><td style="font-weight:bold;vertical-align:top;">REMOTE_ADDR</td><td style="vertical-align:top;">:</td><td><div>127.0.0.1</div></td></tr><tr><td style="font-weight:bold;vertical-align:top;">REMOTE_PORT</td><td style="vertical-align:top;">:</td><td><div>55639</div></td></tr><tr><td style="font-weight:bold;vertical-align:top;">REQUEST_METHOD</td><td style="vertical-align:top;">:</td><td><div>GET</div></td></tr><tr><td style="font-weight:bold;vertical-align:top;">SCRIPT_NAME</td><td style="vertical-align:top;">:</td><td><div></div></td></tr><tr><td style="font-weight:bold;vertical-align:top;">SERVER_NAME</td><td style="vertical-align:top;">:</td><td><div>caden-mbp</div></td></tr><tr><td style="font-weight:bold;vertical-align:top;">SERVER_PORT</td><td style="vertical-align:top;">:</td><td><div>8000</div></td></tr><tr><td style="font-weight:bold;vertical-align:top;">SERVER_PROTOCOL</td><td style="vertical-align:top;">:</td><td><div>HTTP/1.1</div></td></tr><tr><td style="font-weight:bold;vertical-align:top;">SERVER_SOFTWARE</td><td style="vertical-align:top;">:</td><td><div>Rocket 1.2.6</div></td></tr><tr><td style="font-weight:bold;vertical-align:top;">app_folders</td><td style="vertical-align:top;">:</td><td><div>set([&#x27;/Users/cmorikuni/Desktop/web2py/web2py.app/Contents/Resources/applications/admin/&#x27;, &#x27;/Users/cmorikuni/Desktop/web2py/web2py.app/Contents/Resources/applications/welcome/&#x27;, &#x27;/Users/cmorikuni/Desktop/web2py/web2py.app/Contents/Resources/applications/RegressionReport/&#x27;])</div></td></tr><tr><td style="font-weight:bold;vertical-align:top;">applications_parent</td><td style="vertical-align:top;">:</td><td><div>/Users/cmorikuni/Desktop/web2py/web2py.app/Contents/Resources</div></td></tr><tr><td style="font-weight:bold;vertical-align:top;">cmd_args</td><td style="vertical-align:top;">:</td><td><div><table></table></div></td></tr><tr><td style="font-weight:bold;vertical-align:top;">cmd_options</td><td style="vertical-align:top;">:</td><td><div>&lt;Values at 0x108caec20: {&#x27;verbose&#x27;: False, &#x27;ip&#x27;: &#x27;127.0.0.1&#x27;, &#x27;debuglevel&#x27;: 30, &#x27;with_scheduler&#x27;: False, &#x27;ips&#x27;: [], &#x27;shutdown_timeout&#x27;: 5, &#x27;taskbar&#x27;: False, &#x27;with_coverage&#x27;: False, &#x27;port&#x27;: 8000, &#x27;maxthreads&#x27;: None, &#x27;softcron&#x27;: False, &#x27;server_name&#x27;: &#x27;caden-mbp&#x27;, &#x27;bpython&#x27;: False, &#x27;nogui&#x27;: False, &#x27;pid_filename&#x27;: &#x27;httpserver.pid&#x27;, &#x27;extcron&#x27;: False, &#x27;runcron&#x27;: False, &#x27;run_system_tests&#x27;: False, &#x27;test&#x27;: None, &#x27;folder&#x27;: &#x27;/Users/cmorikuni/Desktop/web2py/web2py.app/Contents/Resources&#x27;, &#x27;config&#x27;: &#x27;&#x27;, &#x27;minthreads&#x27;: None, &#x27;shell&#x27;: None, &#x27;run&#x27;: &#x27;&#x27;, &#x27;log_filename&#x27;: &#x27;httpserver.log&#x27;, &#x27;profiler_dir&#x27;: None, &#x27;args&#x27;: [&#x27;&#x27;], &#x27;socket_timeout&#x27;: 5, &#x27;ssl_ca_certificate&#x27;: None, &#x27;scheduler&#x27;: None, &#x27;interfaces&#x27;: None, &#x27;ssl_private_key&#x27;: &#x27;&#x27;, &#x27;scheduler_groups&#x27;: None, &#x27;password&#x27;: &#x27;&lt;ask&gt;&#x27;, &#x27;request_queue_size&#x27;: 5, &#x27;ssl_certificate&#x27;: &#x27;&#x27;, &#x27;cronjob&#x27;: False, &#x27;numthreads&#x27;: None, &#x27;quiet&#x27;: False, &#x27;import_models&#x27;: False, &#x27;timeout&#x27;: 10, &#x27;plain&#x27;: False, &#x27;nobanner&#x27;: False}&gt;</div></td></tr><tr><td style="font-weight:bold;vertical-align:top;">db_sessions</td><td style="vertical-align:top;">:</td><td><div>set([])</div></td></tr><tr><td style="font-weight:bold;vertical-align:top;">debugging</td><td style="vertical-align:top;">:</td><td><div>True</div></td></tr><tr><td style="font-weight:bold;vertical-align:top;">gluon_parent</td><td style="vertical-align:top;">:</td><td><div>/Users/cmorikuni/Desktop/web2py/web2py.app/Contents/Resources</div></td></tr><tr><td style="font-weight:bold;vertical-align:top;">http_accept</td><td style="vertical-align:top;">:</td><td><div>text/html,application/xhtml+xml,application/xml;q=0.9,image/webp,*/*;q=0.8</div></td></tr><tr><td style="font-weight:bold;vertical-align:top;">http_accept_encoding</td><td style="vertical-align:top;">:</td><td><div>gzip,deflate,sdch</div></td></tr><tr><td style="font-weight:bold;vertical-align:top;">http_accept_language</td><td style="vertical-align:top;">:</td><td><div>en-US,en;q=0.8</div></td></tr><tr><td style="font-weight:bold;vertical-align:top;">http_cache_control</td><td style="vertical-align:top;">:</td><td><div>max-age=0</div></td></tr><tr><td style="font-weight:bold;vertical-align:top;">http_connection</td><td style="vertical-align:top;">:</td><td><div>keep-alive</div></td></tr><tr><td style="font-weight:bold;vertical-align:top;">http_cookie</td><td style="vertical-align:top;">:</td><td><div>session_id_welcome=127.0.0.1-d5d13d7e-7b18-4723-819a-32096c6bfd94; session_id_regressionreport=127.0.0.1-f7b81319-054a-42b3-a5a8-8f1bb48b6334; session_id_admin=127.0.0.1-f62f41d2-67ee-4db8-ade0-2830baf111ef</div></td></tr><tr><td style="font-weight:bold;vertical-align:top;">http_host</td><td style="vertical-align:top;">:</td><td><div>127.0.0.1:8000</div></td></tr><tr><td style="font-weight:bold;vertical-align:top;">http_referer</td><td style="vertical-align:top;">:</td><td><div>http://127.0.0.1:8000/RegressionReport</div></td></tr><tr><td style="font-weight:bold;vertical-align:top;">http_user_agent</td><td style="vertical-align:top;">:</td><td><div>Mozilla/5.0 (Macintosh; Intel Mac OS X 10_9_2) AppleWebKit/537.36 (KHTML, like Gecko) Chrome/35.0.1916.153 Safari/537.36</div></td></tr><tr><td style="font-weight:bold;vertical-align:top;">is_jython</td><td style="vertical-align:top;">:</td><td><div>False</div></td></tr><tr><td style="font-weight:bold;vertical-align:top;">is_pypy</td><td style="vertical-align:top;">:</td><td><div>False</div></td></tr><tr><td style="font-weight:bold;vertical-align:top;">is_source</td><td style="vertical-align:top;">:</td><td><div>True</div></td></tr><tr><td style="font-weight:bold;vertical-align:top;">local_hosts</td><td style="vertical-align:top;">:</td><td><div><table><tr><td><div>caden-mbp</div></td></tr><tr><td><div>::1</div></td></tr><tr><td><div>::ffff:127.0.0.1</div></td></tr><tr><td><div>127.0.0.1</div></td></tr></table></div></td></tr><tr><td style="font-weight:bold;vertical-align:top;">path_info</td><td style="vertical-align:top;">:</td><td><div>/RegressionReport/default/view/126</div></td></tr><tr><td style="font-weight:bold;vertical-align:top;">query_string</td><td style="vertical-align:top;">:</td><td><div></div></td></tr><tr><td style="font-weight:bold;vertical-align:top;">remote_addr</td><td style="vertical-align:top;">:</td><td><div>127.0.0.1</div></td></tr><tr><td style="font-weight:bold;vertical-align:top;">remote_port</td><td style="vertical-align:top;">:</td><td><div>55639</div></td></tr><tr><td style="font-weight:bold;vertical-align:top;">request_method</td><td style="vertical-align:top;">:</td><td><div>GET</div></td></tr><tr><td style="font-weight:bold;vertical-align:top;">request_uri</td><td style="vertical-align:top;">:</td><td><div>/RegressionReport/default/view/126</div></td></tr><tr><td style="font-weight:bold;vertical-align:top;">script_name</td><td style="vertical-align:top;">:</td><td><div></div></td></tr><tr><td style="font-weight:bold;vertical-align:top;">server_name</td><td style="vertical-align:top;">:</td><td><div>caden-mbp</div></td></tr><tr><td style="font-weight:bold;vertical-align:top;">server_port</td><td style="vertical-align:top;">:</td><td><div>8000</div></td></tr><tr><td style="font-weight:bold;vertical-align:top;">server_protocol</td><td style="vertical-align:top;">:</td><td><div>HTTP/1.1</div></td></tr><tr><td style="font-weight:bold;vertical-align:top;">server_software</td><td style="vertical-align:top;">:</td><td><div>Rocket 1.2.6</div></td></tr><tr><td style="font-weight:bold;vertical-align:top;">web2py_path</td><td style="vertical-align:top;">:</td><td><div>/Users/cmorikuni/Desktop/web2py/web2py.app/Contents/Resources</div></td></tr><tr><td style="font-weight:bold;vertical-align:top;">web2py_version</td><td style="vertical-align:top;">:</td><td><div>2.9.5-stable+timestamp.2014.03.20.22.57.13</div></td></tr><tr><td style="font-weight:bold;vertical-align:top;">wsgi.errors</td><td style="vertical-align:top;">:</td><td><div>&lt;open file &#x27;&lt;stderr&gt;&#x27;, mode &#x27;w&#x27; at 0x107e0d1e0&gt;</div></td></tr><tr><td style="font-weight:bold;vertical-align:top;">wsgi.file_wrapper</td><td style="vertical-align:top;">:</td><td><div>&lt;class wsgiref.util.FileWrapper at 0x108c3fe20&gt;</div></td></tr><tr><td style="font-weight:bold;vertical-align:top;">wsgi.input</td><td style="vertical-align:top;">:</td><td><div>&lt;socket._fileobject object at 0x110fff250&gt;</div></td></tr><tr><td style="font-weight:bold;vertical-align:top;">wsgi.multiprocess</td><td style="vertical-align:top;">:</td><td><div>False</div></td></tr><tr><td style="font-weight:bold;vertical-align:top;">wsgi.multithread</td><td style="vertical-align:top;">:</td><td><div>True</div></td></tr><tr><td style="font-weight:bold;vertical-align:top;">wsgi.run_once</td><td style="vertical-align:top;">:</td><td><div>False</div></td></tr><tr><td style="font-weight:bold;vertical-align:top;">wsgi.url_scheme</td><td style="vertical-align:top;">:</td><td><div>http</div></td></tr><tr><td style="font-weight:bold;vertical-align:top;">wsgi.version</td><td style="vertical-align:top;">:</td><td><div><table><tr><td><div>1</div></td></tr><tr><td><div>0</div></td></tr></table></div></td></tr><tr><td style="font-weight:bold;vertical-align:top;">wsgi_errors</td><td style="vertical-align:top;">:</td><td><div>&lt;open file &#x27;&lt;stderr&gt;&#x27;, mode &#x27;w&#x27; at 0x107e0d1e0&gt;</div></td></tr><tr><td style="font-weight:bold;vertical-align:top;">wsgi_file_wrapper</td><td style="vertical-align:top;">:</td><td><div>&lt;class wsgiref.util.FileWrapper at 0x108c3fe20&gt;</div></td></tr><tr><td style="font-weight:bold;vertical-align:top;">wsgi_input</td><td style="vertical-align:top;">:</td><td><div>&lt;socket._fileobject object at 0x110fff250&gt;</div></td></tr><tr><td style="font-weight:bold;vertical-align:top;">wsgi_multiprocess</td><td style="vertical-align:top;">:</td><td><div>False</div></td></tr><tr><td style="font-weight:bold;vertical-align:top;">wsgi_multithread</td><td style="vertical-align:top;">:</td><td><div>True</div></td></tr><tr><td style="font-weight:bold;vertical-align:top;">wsgi_run_once</td><td style="vertical-align:top;">:</td><td><div>False</div></td></tr><tr><td style="font-weight:bold;vertical-align:top;">wsgi_url_scheme</td><td style="vertical-align:top;">:</td><td><div>http</div></td></tr><tr><td style="font-weight:bold;vertical-align:top;">wsgi_version</td><td style="vertical-align:top;">:</td><td><div><table><tr><td><div>1</div></td></tr><tr><td><div>0</div></td></tr></table></div></td></tr></table></div></td></tr><tr><td style="font-weight:bold;vertical-align:top;">extension</td><td style="vertical-align:top;">:</td><td><div>html</div></td></tr><tr><td style="font-weight:bold;vertical-align:top;">folder</td><td style="vertical-align:top;">:</td><td><div>/Users/cmorikuni/Desktop/web2py/web2py.app/Contents/Resources/applications/RegressionReport/</div></td></tr><tr><td style="font-weight:bold;vertical-align:top;">function</td><td style="vertical-align:top;">:</td><td><div>view</div></td></tr><tr><td style="font-weight:bold;vertical-align:top;">global_settings</td><td style="vertical-align:top;">:</td><td><div><table><tr><td style="font-weight:bold;vertical-align:top;">app_folders</td><td style="vertical-align:top;">:</td><td><div>set([&#x27;/Users/cmorikuni/Desktop/web2py/web2py.app/Contents/Resources/applications/admin/&#x27;, &#x27;/Users/cmorikuni/Desktop/web2py/web2py.app/Contents/Resources/applications/welcome/&#x27;, &#x27;/Users/cmorikuni/Desktop/web2py/web2py.app/Contents/Resources/applications/RegressionReport/&#x27;])</div></td></tr><tr><td style="font-weight:bold;vertical-align:top;">applications_parent</td><td style="vertical-align:top;">:</td><td><div>/Users/cmorikuni/Desktop/web2py/web2py.app/Contents/Resources</div></td></tr><tr><td style="font-weight:bold;vertical-align:top;">cmd_args</td><td style="vertical-align:top;">:</td><td><div><table></table></div></td></tr><tr><td style="font-weight:bold;vertical-align:top;">cmd_options</td><td style="vertical-align:top;">:</td><td><div>&lt;Values at 0x108caec20: {&#x27;verbose&#x27;: False, &#x27;ip&#x27;: &#x27;127.0.0.1&#x27;, &#x27;debuglevel&#x27;: 30, &#x27;with_scheduler&#x27;: False, &#x27;ips&#x27;: [], &#x27;shutdown_timeout&#x27;: 5, &#x27;taskbar&#x27;: False, &#x27;with_coverage&#x27;: False, &#x27;port&#x27;: 8000, &#x27;maxthreads&#x27;: None, &#x27;softcron&#x27;: False, &#x27;server_name&#x27;: &#x27;caden-mbp&#x27;, &#x27;bpython&#x27;: False, &#x27;nogui&#x27;: False, &#x27;pid_filename&#x27;: &#x27;httpserver.pid&#x27;, &#x27;extcron&#x27;: False, &#x27;runcron&#x27;: False, &#x27;run_system_tests&#x27;: False, &#x27;test&#x27;: None, &#x27;folder&#x27;: &#x27;/Users/cmorikuni/Desktop/web2py/web2py.app/Contents/Resources&#x27;, &#x27;config&#x27;: &#x27;&#x27;, &#x27;minthreads&#x27;: None, &#x27;shell&#x27;: None, &#x27;run&#x27;: &#x27;&#x27;, &#x27;log_filename&#x27;: &#x27;httpserver.log&#x27;, &#x27;profiler_dir&#x27;: None, &#x27;args&#x27;: [&#x27;&#x27;], &#x27;socket_timeout&#x27;: 5, &#x27;ssl_ca_certificate&#x27;: None, &#x27;scheduler&#x27;: None, &#x27;interfaces&#x27;: None, &#x27;ssl_private_key&#x27;: &#x27;&#x27;, &#x27;scheduler_groups&#x27;: None, &#x27;password&#x27;: &#x27;&lt;ask&gt;&#x27;, &#x27;request_queue_size&#x27;: 5, &#x27;ssl_certificate&#x27;: &#x27;&#x27;, &#x27;cronjob&#x27;: False, &#x27;numthreads&#x27;: None, &#x27;quiet&#x27;: False, &#x27;import_models&#x27;: False, &#x27;timeout&#x27;: 10, &#x27;plain&#x27;: False, &#x27;nobanner&#x27;: False}&gt;</div></td></tr><tr><td style="font-weight:bold;vertical-align:top;">db_sessions</td><td style="vertical-align:top;">:</td><td><div>set([])</div></td></tr><tr><td style="font-weight:bold;vertical-align:top;">debugging</td><td style="vertical-align:top;">:</td><td><div>True</div></td></tr><tr><td style="font-weight:bold;vertical-align:top;">gluon_parent</td><td style="vertical-align:top;">:</td><td><div>/Users/cmorikuni/Desktop/web2py/web2py.app/Contents/Resources</div></td></tr><tr><td style="font-weight:bold;vertical-align:top;">is_jython</td><td style="vertical-align:top;">:</td><td><div>False</div></td></tr><tr><td style="font-weight:bold;vertical-align:top;">is_pypy</td><td style="vertical-align:top;">:</td><td><div>False</div></td></tr><tr><td style="font-weight:bold;vertical-align:top;">is_source</td><td style="vertical-align:top;">:</td><td><div>True</div></td></tr><tr><td style="font-weight:bold;vertical-align:top;">local_hosts</td><td style="vertical-align:top;">:</td><td><div><table><tr><td><div>caden-mbp</div></td></tr><tr><td><div>::1</div></td></tr><tr><td><div>::ffff:127.0.0.1</div></td></tr><tr><td><div>127.0.0.1</div></td></tr></table></div></td></tr><tr><td style="font-weight:bold;vertical-align:top;">web2py_version</td><td style="vertical-align:top;">:</td><td><div>2.9.5-stable+timestamp.2014.03.20.22.57.13</div></td></tr></table></div></td></tr><tr><td style="font-weight:bold;vertical-align:top;">is_https</td><td style="vertical-align:top;">:</td><td><div>False</div></td></tr><tr><td style="font-weight:bold;vertical-align:top;">is_local</td><td style="vertical-align:top;">:</td><td><div>True</div></td></tr><tr><td style="font-weight:bold;vertical-align:top;">is_restful</td><td style="vertical-align:top;">:</td><td><div>False</div></td></tr><tr><td style="font-weight:bold;vertical-align:top;">now</td><td style="vertical-align:top;">:</td><td><div>datetime.datetime(2014, 7, 16, 22, 3, 31, 271066)</div></td></tr><tr><td style="font-weight:bold;vertical-align:top;">raw_args</td><td style="vertical-align:top;">:</td><td><div>126</div></td></tr><tr><td style="font-weight:bold;vertical-align:top;">raw_extension</td><td style="vertical-align:top;">:</td><td><div>None</div></td></tr><tr><td style="font-weight:bold;vertical-align:top;">url</td><td style="vertical-align:top;">:</td><td><div>/RegressionReport/default/view/126</div></td></tr><tr><td style="font-weight:bold;vertical-align:top;">utcnow</td><td style="vertical-align:top;">:</td><td><div>datetime.datetime(2014, 7, 17, 8, 3, 31, 271077)</div></td></tr><tr><td style="font-weight:bold;vertical-align:top;">uuid</td><td style="vertical-align:top;">:</td><td><div>RegressionReport/127.0.0.1.2014-07-16.22-03-31.4669889f-663c-4980-bad2-975d269277cd</div></td></tr><tr><td style="font-weight:bold;vertical-align:top;">wsgi</td><td style="vertical-align:top;">:</td><td><div>&lt;gluon.main.LazyWSGI object at 0x1114b2090&gt;</div></td></tr></table></div>'
tRp58
sS'frames'
p59
(lp60
(dp61
S'file'
p62
S'/Users/cmorikuni/Desktop/web2py/web2py.app/Contents/Resources/gluon/restricted.py'
p63
sS'dump'
p64
(dp65
S'environment'
p66
S"{'A': <class 'gluon.html.A'>, 'ANY_OF': <class 'gluon.validators.ANY_OF'>, 'Auth': <class 'gluon.tools.Auth'>, 'B': <class 'gluon.html.B'>, 'BEAUTIFY': <class 'gluon.html.BEAUTIFY'>, 'BODY': <class 'gluon.html.BODY'>, 'BR': <class 'gluon.html.BR'>, 'BUTTON': <class 'gluon.html.BUTTON'>, 'CAT': <class 'gluon.html.CAT'>, 'CENTER': <class 'gluon.html.CENTER'>, ...}"
p67
sS'ccode'
p68
S'<code object <module> at 0x110fffcb0, file "/Use...egressionReport/controllers/default.py", line 11>'
p69
ssS'lnum'
p70
I220
sS'lines'
p71
(dp72
I224
S'        # do not encapsulate (obfuscate) the original RestrictedError'
p73
sI215
S'    try:'
p74
sI216
S'        if isinstance(code, types.CodeType):'
p75
sI217
S'            ccode = code'
p76
sI218
S'        else:'
p77
sI219
S'            ccode = compile2(code, layer)'
p78
sI220
S'        exec ccode in environment'
p79
sI221
S'    except HTTP:'
p80
sI222
S'        raise'
p81
sI223
S'    except RestrictedError:'
p82
ssS'call'
p83
S"(code='# -*- coding: utf-8 -*-\\n# this file is released ...m=crud())\\n\\nresponse._vars=response._caller(view)\\n', environment={'A': <class 'gluon.html.A'>, 'ANY_OF': <class 'gluon.validators.ANY_OF'>, 'Auth': <class 'gluon.tools.Auth'>, 'B': <class 'gluon.html.B'>, 'BEAUTIFY': <class 'gluon.html.BEAUTIFY'>, 'BODY': <class 'gluon.html.BODY'>, 'BR': <class 'gluon.html.BR'>, 'BUTTON': <class 'gluon.html.BUTTON'>, 'CAT': <class 'gluon.html.CAT'>, 'CENTER': <class 'gluon.html.CENTER'>, ...}, layer='/Users/cmorikuni/Desktop/web2py/web2py.app/Conte...lications/RegressionReport/controllers/default.py')"
p84
sS'func'
p85
S'restricted'
p86
sa(dp87
g62
S'/Users/cmorikuni/Desktop/web2py/web2py.app/Contents/Resources/applications/RegressionReport/controllers/default.py'
p88
sg64
(dp89
sg70
I259
sg71
(dp90
I256
S'    """'
p91
sI257
S'    return dict(form=crud())'
p92
sI248
S'    http://..../[app]/default/data/update/[table]/[id]'
p93
sI249
S'    http://..../[app]/default/data/delete/[table]/[id]'
p94
sI250
S'    http://..../[app]/default/data/select/[table]'
p95
sI251
S'    http://..../[app]/default/data/search/[table]'
p96
sI252
S'    but URLs must be signed, i.e. linked with'
p97
sI253
S"      A('table',_href=URL('data/tables',user_signature=True))"
p98
sI254
S'    or with the signed load operator'
p99
sI255
S"      LOAD('default','data.load',args='tables',ajax=True,user_signature=True)"
p100
ssg83
S'()'
p101
sg85
S'<module>'
p102
sa(dp103
g62
S'/Users/cmorikuni/Desktop/web2py/web2py.app/Contents/Resources/gluon/globals.py'
p104
sg64
(dp105
S'self'
p106
S'undefined'
p107
sS'f'
S'<function view>'
p108
ssg70
I385
sg71
(dp109
I384
S'        self._vars = None'
p110
sI385
S'        self._caller = lambda f: f()'
p111
sI386
S'        self._view_environment = None'
p112
sI387
S'        self._custom_commit = None'
p113
sI388
S'        self._custom_rollback = None'
p114
sI389
S''
sI380
S'        self.menu = []             # used by the default view layout'
p115
sI381
S'        self.files = []            # used by web2py_ajax.html'
p116
sI382
S'        self.generic_patterns = []  # patterns to allow generic views'
p117
sI383
S"        self.delimiters = ('{{', '}}')"
p118
ssg83
S'(f=<function view>)'
p119
sg85
S'<lambda>'
p120
sa(dp121
g62
S'/Users/cmorikuni/Desktop/web2py/web2py.app/Contents/Resources/applications/RegressionReport/controllers/default.py'
p122
sg64
(dp123
S'failureId'
p124
S"'126'"
p125
sS'global tableView'
p126
S'<function tableView>'
p127
sS'form'
p128
g107
ssg70
I149
sg71
(dp129
I144
S'    return form'
p130
sI145
S''
sI146
S''
sI147
S'def view():'
p131
sI148
S'    failureId = request.args(0)'
p132
sI149
S'    form = tableView(failureId)'
p133
sI150
S'    return dict(form=form)'
p134
sI151
S''
sI152
S'def create():'
p135
sI153
S'    failureId = request.args(0)'
p136
ssg83
S'()'
p137
sg85
S'view'
p138
sa(dp139
g62
S'/Users/cmorikuni/Desktop/web2py/web2py.app/Contents/Resources/applications/RegressionReport/controllers/default.py'
p140
sg64
(dp141
S'extracolumns'
p142
S"[{'class': '', 'content': <function <lambda>>, 'label': '', 'selected': False, 'width': ''}]"
p143
sS'global SQLTABLE'
p144
S"<class 'gluon.sqlhtml.SQLTABLE'>"
p145
sS'form'
p146
g107
sS'headers'
p147
S"{'reviews.action': {'class': 'th', 'label': 'Action', 'selected': False, 'truncate': 50, 'width': '65'}, 'reviews.failure': {'class': 'th', 'label': 'Failure', 'selected': False, 'width': '500'}, 'reviews.notes': {'class': 'th', 'label': 'Notes', 'selected': False, 'width': '500'}, 'reviews.occurrence': {'class': 'th', 'label': 'Occurrence', 'selected': False, 'truncate': 15, 'width': '50'}, 'reviews.reason': {'class': 'th', 'label': 'Reason', 'selected': False, 'width': '500'}, 'reviews.reviewDate': {'class': 'th', 'label': 'Date', 'selected': False, 'truncate': 25, 'width': '150'}, 'reviews.user': {'class': 'th', 'label': 'User', 'selected': False, 'truncate': 25, 'width': '30'}}"
p148
sS'reviewIds'
p149
S'<Rows (1)>'
p150
sS'columns'
p151
S"['reviews.reviewDate', 'reviews.user', 'reviews.failure', 'reviews.occurrence', 'reviews.reason', 'reviews.action', 'reviews.notes']"
p152
ssg70
I143
sg71
(dp153
I138
S"                'width':'', #width in pixels or %"
p154
sI139
S'                \'content\':lambda row, rc: A(\'Edit\',_href=URL("default", "edit", args=[row.id, row.failureId])),'
p155
sI140
S"                'selected': False #agregate class selected to this column"
p156
sI141
S'                }]'
p157
sI142
S''
sI143
S'    form = SQLTABLE(reviewIds, headers=headers, columns=columns, extracolumns=extracolumns)'
p158
sI144
S'    return form'
p159
sI145
S''
sI146
S''
sI147
S'def view():'
p160
ssg83
S"(failId='126')"
p161
sg85
S'tableView'
p162
sa(dp163
g62
S'/Users/cmorikuni/Desktop/web2py/web2py.app/Contents/Resources/gluon/sqlhtml.py'
p164
sg64
(dp165
S'builtinisinstance'
p166
S'<built-in function isinstance>'
p167
sS'builtinint'
p168
S"<type 'int'>"
p169
sS'colname'
p170
S"'reviews.failure'"
p171
sS'headers'
p172
S"{'reviews.action': {'class': 'th', 'label': 'Action', 'selected': False, 'truncate': 50, 'width': '65'}, 'reviews.failure': {'class': 'th', 'label': 'Failure', 'selected': False, 'width': '500'}, 'reviews.notes': {'class': 'th', 'label': 'Notes', 'selected': False, 'width': '500'}, 'reviews.occurrence': {'class': 'th', 'label': 'Occurrence', 'selected': False, 'truncate': 15, 'width': '50'}, 'reviews.reason': {'class': 'th', 'label': 'Reason', 'selected': False, 'width': '500'}, 'reviews.reviewDate': {'class': 'th', 'label': 'Date', 'selected': False, 'truncate': 25, 'width': '150'}, 'reviews.user': {'class': 'th', 'label': 'User', 'selected': False, 'truncate': 25, 'width': '30'}}"
p173
ssg70
I3065
sg71
(dp174
I3060
S"                        r = ''"
p175
sI3061
S"                elif field.type in ['string', 'text']:"
p176
sI3062
S'                    r = str(field.formatter(r))'
p177
sI3063
S'                    if headers != {}:  # new implement dict'
p178
sI3064
S'                        if isinstance(headers[colname], dict):'
p179
sI3065
S"                            if isinstance(headers[colname]['truncate'], int):"
p180
sI3066
S'                                r = truncate_string('
p181
sI3067
S"                                    r, headers[colname]['truncate'])"
p182
sI3068
S'                    elif not truncate is None:'
p183
sI3069
S'                        r = truncate_string(r, truncate)'
p184
ssg83
S"(self=<gluon.sqlhtml.SQLTABLE object>, sqlrows=<Rows (1)>, linkto=None, upload=None, orderby=None, headers={'reviews.action': {'class': 'th', 'label': 'Action', 'selected': False, 'truncate': 50, 'width': '65'}, 'reviews.failure': {'class': 'th', 'label': 'Failure', 'selected': False, 'width': '500'}, 'reviews.notes': {'class': 'th', 'label': 'Notes', 'selected': False, 'width': '500'}, 'reviews.occurrence': {'class': 'th', 'label': 'Occurrence', 'selected': False, 'truncate': 15, 'width': '50'}, 'reviews.reason': {'class': 'th', 'label': 'Reason', 'selected': False, 'width': '500'}, 'reviews.reviewDate': {'class': 'th', 'label': 'Date', 'selected': False, 'truncate': 25, 'width': '150'}, 'reviews.user': {'class': 'th', 'label': 'User', 'selected': False, 'truncate': 25, 'width': '30'}}, truncate=16, columns=['reviews.reviewDate', 'reviews.user', 'reviews.failure', 'reviews.occurrence', 'reviews.reason', 'reviews.action', 'reviews.notes'], th_link='', extracolumns=[{'class': '', 'content': <function <lambda>>, 'label': '', 'selected': False, 'width': ''}], selectid=None, renderstyle=False, cid=None, colgroup=False, **attributes={})"
p185
sg85
g50
sasS'pyver'
p186
S'Python 2.7.5: /usr/bin/python (prefix: /System/Library/Frameworks/Python.framework/Versions/2.7)'
p187
sS'session'
p188
g57
(S's\x1a\x00\x00\x00<div><table></table></div>'
tRp189
sS'etype'
p190
S"<type 'exceptions.KeyError'>"
p191
sS'date'
p192
S'Wed Jul 16 22:03:31 2014'
p193
sS'response'
p194
g57
(S'sY2\x00\x00<div><table><tr><td style="font-weight:bold;vertical-align:top;">body</td><td style="vertical-align:top;">:</td><td><div>&lt;cStringIO.StringO object at 0x111e46f10&gt;</div></td></tr><tr><td style="font-weight:bold;vertical-align:top;">cookies</td><td style="vertical-align:top;">:</td><td><div><table><tr><td style="font-weight:bold;vertical-align:top;">session_id_regressionreport</td><td style="vertical-align:top;">:</td><td><div>127.0.0.1-f7b81319-054a-42b3-a5a8-8f1bb48b6334<table><tr><td style="font-weight:bold;vertical-align:top;">comment</td><td style="vertical-align:top;">:</td><td><div></div></td></tr><tr><td style="font-weight:bold;vertical-align:top;">domain</td><td style="vertical-align:top;">:</td><td><div></div></td></tr><tr><td style="font-weight:bold;vertical-align:top;">expires</td><td style="vertical-align:top;">:</td><td><div></div></td></tr><tr><td style="font-weight:bold;vertical-align:top;">httponly</td><td style="vertical-align:top;">:</td><td><div></div></td></tr><tr><td style="font-weight:bold;vertical-align:top;">max-age</td><td style="vertical-align:top;">:</td><td><div></div></td></tr><tr><td style="font-weight:bold;vertical-align:top;">path</td><td style="vertical-align:top;">:</td><td><div>/</div></td></tr><tr><td style="font-weight:bold;vertical-align:top;">secure</td><td style="vertical-align:top;">:</td><td><div></div></td></tr><tr><td style="font-weight:bold;vertical-align:top;">version</td><td style="vertical-align:top;">:</td><td><div></div></td></tr></table></div></td></tr></table></div></td></tr><tr><td style="font-weight:bold;vertical-align:top;">delimiters</td><td style="vertical-align:top;">:</td><td><div><table><tr><td><div>{{</div></td></tr><tr><td><div>}}</div></td></tr></table></div></td></tr><tr><td style="font-weight:bold;vertical-align:top;">files</td><td style="vertical-align:top;">:</td><td><div><table></table></div></td></tr><tr><td style="font-weight:bold;vertical-align:top;">flash</td><td style="vertical-align:top;">:</td><td><div></div></td></tr><tr><td style="font-weight:bold;vertical-align:top;">generic_patterns</td><td style="vertical-align:top;">:</td><td><div><table><tr><td><div>*</div></td></tr></table></div></td></tr><tr><td style="font-weight:bold;vertical-align:top;">google_analytics_id</td><td style="vertical-align:top;">:</td><td><div>None</div></td></tr><tr><td style="font-weight:bold;vertical-align:top;">headers</td><td style="vertical-align:top;">:</td><td><div><table><tr><td style="font-weight:bold;vertical-align:top;">X-Powered-By</td><td style="vertical-align:top;">:</td><td><div>web2py</div></td></tr></table></div></td></tr><tr><td style="font-weight:bold;vertical-align:top;">logo</td><td style="vertical-align:top;">:</td><td><div><a class="brand" href="http://www.web2py.com/"><b>web<span>2</span>py</b>&trade;&nbsp;</a></div></td></tr><tr><td style="font-weight:bold;vertical-align:top;">menu</td><td style="vertical-align:top;">:</td><td><div><table><tr><td><div><table><tr><td><div>Home</div></td></tr><tr><td><div>False</div></td></tr><tr><td><div>/RegressionReport/default/index</div></td></tr><tr><td><div><table></table></div></td></tr></table></div></td></tr><tr><td><div><table><tr><td><div><span class="highlighted">web2py</span></div></td></tr><tr><td><div>False</div></td></tr><tr><td><div>http://web2py.com</div></td></tr><tr><td><div><table><tr><td><div><table><tr><td><div>My Sites</div></td></tr><tr><td><div>False</div></td></tr><tr><td><div>/admin/default/site</div></td></tr></table></div></td></tr><tr><td><div><table><tr><td><div>This App</div></td></tr><tr><td><div>False</div></td></tr><tr><td><div>/admin/default/design/RegressionReport</div></td></tr><tr><td><div>[(&lt;lazyT &#x27;Controller&#x27;&gt;, False, &#x27;/admin/default/edit/RegressionReport/controllers/default.py&#x27;), (&lt;lazyT &#x27;View&#x27;&gt;, False, &#x27;/admin/default/edit/RegressionReport/views/default/view.html&#x27;), (&lt;lazyT &#x27;Layout&#x27;&gt;, False, &#x27;/admin/default/edit/RegressionReport/views/layout.html&#x27;), (&lt;lazyT &#x27;Stylesheet&#x27;&gt;, False, &#x27;/admin/default/edit/RegressionReport/static/css/web2py.css&#x27;), (&lt;lazyT &#x27;DB Model&#x27;&gt;, False, &#x27;/admin/default/edit/RegressionReport/models/db.py&#x27;), (&lt;lazyT &#x27;Menu Model&#x27;&gt;, False, &#x27;/admin/default/edit/RegressionReport/models/menu.py&#x27;), (&lt;lazyT &#x27;Database&#x27;&gt;, False, &#x27;/RegressionReport/appadmin/index&#x27;), (&lt;lazyT &#x27;Errors&#x27;&gt;, False, &#x27;/admin/default/errors/RegressionReport&#x27;), (&lt;lazyT &#x27;About&#x27;&gt;, False, &#x27;/admin/default/about/RegressionReport&#x27;)]</div></td></tr></table></div></td></tr><tr><td><div><table><tr><td><div>web2py.com</div></td></tr><tr><td><div>False</div></td></tr><tr><td><div>http://www.web2py.com</div></td></tr><tr><td><div>[(&lt;lazyT &#x27;Download&#x27;&gt;, False, &#x27;http://www.web2py.com/examples/default/download&#x27;), (&lt;lazyT &#x27;Support&#x27;&gt;, False, &#x27;http://www.web2py.com/examples/default/support&#x27;), (&lt;lazyT &#x27;Demo&#x27;&gt;, False, &#x27;http://web2py.com/demo_admin&#x27;), (&lt;lazyT &#x27;Quick Examples&#x27;&gt;, False, &#x27;http://web2py.com/examples/default/examples&#x27;), (&lt;lazyT &#x27;FAQ&#x27;&gt;, False, &#x27;http://web2py.com/AlterEgo&#x27;), (&lt;lazyT &#x27;Videos&#x27;&gt;, False, &#x27;http://www.web2py.com/examples/default/videos/&#x27;), (&lt;lazyT &#x27;Free Applications&#x27;&gt;, False, &#x27;http://web2py.com/appliances&#x27;), (&lt;lazyT &#x27;Plugins&#x27;&gt;, False, &#x27;http://web2py.com/plugins&#x27;), (&lt;lazyT &#x27;Layouts&#x27;&gt;, False, &#x27;http://web2py.com/layouts&#x27;), (&lt;lazyT &#x27;Recipes&#x27;&gt;, False, &#x27;http://web2pyslices.com/&#x27;), (&lt;lazyT &#x27;Semantic&#x27;&gt;, False, &#x27;http://web2py.com/semantic&#x27;)]</div></td></tr></table></div></td></tr><tr><td><div><table><tr><td><div>Documentation</div></td></tr><tr><td><div>False</div></td></tr><tr><td><div>http://www.web2py.com/book</div></td></tr><tr><td><div>[(&lt;lazyT &#x27;Preface&#x27;&gt;, False, &#x27;http://www.web2py.com/book/default/chapter/00&#x27;), (&lt;lazyT &#x27;Introduction&#x27;&gt;, False, &#x27;http://www.web2py.com/book/default/chapter/01&#x27;), (&lt;lazyT &#x27;Python&#x27;&gt;, False, &#x27;http://www.web2py.com/book/default/chapter/02&#x27;), (&lt;lazyT &#x27;Overview&#x27;&gt;, False, &#x27;http://www.web2py.com/book/default/chapter/03&#x27;), (&lt;lazyT &#x27;The Core&#x27;&gt;, False, &#x27;http://www.web2py.com/book/default/chapter/04&#x27;), (&lt;lazyT &#x27;The Views&#x27;&gt;, False, &#x27;http://www.web2py.com/book/default/chapter/05&#x27;), (&lt;lazyT &#x27;Database&#x27;&gt;, False, &#x27;http://www.web2py.com/book/default/chapter/06&#x27;), (&lt;lazyT &#x27;Forms and Validators&#x27;&gt;, False, &#x27;http://www.web2py.com/book/default/chapter/07&#x27;), (&lt;lazyT &#x27;Email and SMS&#x27;&gt;, False, &#x27;http://www.web2py.com/book/default/chapter/08&#x27;), (&lt;lazyT &#x27;Access Control&#x27;&gt;, False, &#x27;http://www.web2py.com/book/default/chapter/09&#x27;), (&lt;lazyT &#x27;Services&#x27;&gt;, False, &#x27;http://www.web2py.com/book/default/chapter/10&#x27;), (&lt;lazyT &#x27;Ajax Recipes&#x27;&gt;, False, &#x27;http://www.web2py.com/book/default/chapter/11&#x27;), (&lt;lazyT &#x27;Components and Plugins&#x27;&gt;, False, &#x27;http://www.web2py.com/book/default/chapter/12&#x27;), (&lt;lazyT &#x27;Deployment Recipes&#x27;&gt;, False, &#x27;http://www.web2py.com/book/default/chapter/13&#x27;), (&lt;lazyT &#x27;Other Recipes&#x27;&gt;, False, &#x27;http://www.web2py.com/book/default/chapter/14&#x27;), (&lt;lazyT &#x27;Buy this book&#x27;&gt;, False, &#x27;http://stores.lulu.com/web2py&#x27;)]</div></td></tr></table></div></td></tr><tr><td><div><table><tr><td><div>Community</div></td></tr><tr><td><div>False</div></td></tr><tr><td><div>None</div></td></tr><tr><td><div>[(&lt;lazyT &#x27;Groups&#x27;&gt;, False, &#x27;http://www.web2py.com/examples/default/usergroups&#x27;), (&lt;lazyT &#x27;Twitter&#x27;&gt;, False, &#x27;http://twitter.com/web2py&#x27;), (&lt;lazyT &#x27;Live Chat&#x27;&gt;, False, &#x27;http://webchat.freenode.net/?channels=web2py&#x27;)]</div></td></tr></table></div></td></tr><tr><td><div><table><tr><td><div>Plugins</div></td></tr><tr><td><div>False</div></td></tr><tr><td><div>None</div></td></tr><tr><td><div>[(&#x27;plugin_wiki&#x27;, False, &#x27;http://web2py.com/examples/default/download&#x27;), (&lt;lazyT &#x27;Other Plugins&#x27;&gt;, False, &#x27;http://web2py.com/plugins&#x27;), (&lt;lazyT &#x27;Layout Plugins&#x27;&gt;, False, &#x27;http://web2py.com/layouts&#x27;)]</div></td></tr></table></div></td></tr></table></div></td></tr></table></div></td></tr></table></div></td></tr><tr><td style="font-weight:bold;vertical-align:top;">meta</td><td style="vertical-align:top;">:</td><td><div><table><tr><td style="font-weight:bold;vertical-align:top;">author</td><td style="vertical-align:top;">:</td><td><div>Your Name &lt;you@example.com&gt;</div></td></tr><tr><td style="font-weight:bold;vertical-align:top;">generator</td><td style="vertical-align:top;">:</td><td><div>Web2py Web Framework</div></td></tr><tr><td style="font-weight:bold;vertical-align:top;">keywords</td><td style="vertical-align:top;">:</td><td><div>web2py, python, framework</div></td></tr></table></div></td></tr><tr><td style="font-weight:bold;vertical-align:top;">models_to_run</td><td style="vertical-align:top;">:</td><td><div><table><tr><td><div>^\\w+\\.py$</div></td></tr><tr><td><div>^default/\\w+\\.py$</div></td></tr><tr><td><div>^default/view/\\w+\\.py$</div></td></tr></table></div></td></tr><tr><td style="font-weight:bold;vertical-align:top;">postprocessing</td><td style="vertical-align:top;">:</td><td><div><table></table></div></td></tr><tr><td style="font-weight:bold;vertical-align:top;">session_client</td><td style="vertical-align:top;">:</td><td><div>127.0.0.1</div></td></tr><tr><td style="font-weight:bold;vertical-align:top;">session_cookie_compression_level</td><td style="vertical-align:top;">:</td><td><div>None</div></td></tr><tr><td style="font-weight:bold;vertical-align:top;">session_cookie_expires</td><td style="vertical-align:top;">:</td><td><div>None</div></td></tr><tr><td style="font-weight:bold;vertical-align:top;">session_cookie_key</td><td style="vertical-align:top;">:</td><td><div>None</div></td></tr><tr><td style="font-weight:bold;vertical-align:top;">session_data_name</td><td style="vertical-align:top;">:</td><td><div>session_data_regressionreport</div></td></tr><tr><td style="font-weight:bold;vertical-align:top;">session_file</td><td style="vertical-align:top;">:</td><td><div>&lt;open file &#x27;/Users/cmorikuni/Desktop/web2py/web2py.app/Contents/Resources/applications/RegressionReport/sessions/127.0.0.1-f7b81319-054a-42b3-a5a8-8f1bb48b6334&#x27;, mode &#x27;rb+&#x27; at 0x110fedb70&gt;</div></td></tr><tr><td style="font-weight:bold;vertical-align:top;">session_filename</td><td style="vertical-align:top;">:</td><td><div>/Users/cmorikuni/Desktop/web2py/web2py.app/Contents/Resources/applications/RegressionReport/sessions/127.0.0.1-f7b81319-054a-42b3-a5a8-8f1bb48b6334</div></td></tr><tr><td style="font-weight:bold;vertical-align:top;">session_hash</td><td style="vertical-align:top;">:</td><td><div>6ed1e3b292b84310aa9be12f06d0a20b</div></td></tr><tr><td style="font-weight:bold;vertical-align:top;">session_id</td><td style="vertical-align:top;">:</td><td><div>127.0.0.1-f7b81319-054a-42b3-a5a8-8f1bb48b6334</div></td></tr><tr><td style="font-weight:bold;vertical-align:top;">session_id_name</td><td style="vertical-align:top;">:</td><td><div>session_id_regressionreport</div></td></tr><tr><td style="font-weight:bold;vertical-align:top;">session_locked</td><td style="vertical-align:top;">:</td><td><div>True</div></td></tr><tr><td style="font-weight:bold;vertical-align:top;">session_masterapp</td><td style="vertical-align:top;">:</td><td><div>RegressionReport</div></td></tr><tr><td style="font-weight:bold;vertical-align:top;">session_new</td><td style="vertical-align:top;">:</td><td><div>False</div></td></tr><tr><td style="font-weight:bold;vertical-align:top;">session_storage_type</td><td style="vertical-align:top;">:</td><td><div>file</div></td></tr><tr><td style="font-weight:bold;vertical-align:top;">status</td><td style="vertical-align:top;">:</td><td><div>200</div></td></tr><tr><td style="font-weight:bold;vertical-align:top;">subtitle</td><td style="vertical-align:top;">:</td><td><div></div></td></tr><tr><td style="font-weight:bold;vertical-align:top;">title</td><td style="vertical-align:top;">:</td><td><div>Regressionreport</div></td></tr><tr><td style="font-weight:bold;vertical-align:top;">view</td><td style="vertical-align:top;">:</td><td><div>default/view.html</div></td></tr></table></div>'
tRp195
sS'locals'
p196
(dp197
S'extracolumns'
p198
S"[{'class': '', 'content': <function <lambda>>, 'label': '', 'selected': False, 'width': ''}]"
p199
sS'renderstyle'
p200
S'False'
p201
sS'th_link'
p202
S"''"
p203
sS'sqlrows'
p204
S'<Rows (1)>'
p205
sS'row'
p206
S'[<gluon.html.TD object>, <gluon.html.TD object>]'
p207
sS'r_old'
p208
S"'11:59:00  11:59:00.261 ERROR - Error encountered...ture field and FCS: 64 bytes. Required: 66 bytes.'"
p209
sS'self'
p210
S'<gluon.sqlhtml.SQLTABLE object>'
p211
sS'tablename'
p212
S"'reviews'"
p213
sS'tbody'
p214
S'[]'
p215
sS'field'
p216
S'<gluon.dal.Field object>'
p217
sS'rc'
p218
S'0'
sS'_class'
p219
S"'w2p_even even'"
p220
sS'columns'
p221
S"['reviews.reviewDate', 'reviews.user', 'reviews.failure', 'reviews.occurrence', 'reviews.reason', 'reviews.action', 'reviews.notes']"
p222
sS'truncate'
p223
S'16'
p224
sS'colname'
p225
S"'reviews.failure'"
p226
sS'selectid'
p227
S'None'
p228
sS'colclass'
p229
S"'th'"
p230
sS'coldict'
p231
S"{'class': 'th', 'label': 'Notes', 'selected': False, 'width': '500'}"
p232
sS'headers'
p233
S"{'reviews.action': {'class': 'th', 'label': 'Action', 'selected': False, 'truncate': 50, 'width': '65'}, 'reviews.failure': {'class': 'th', 'label': 'Failure', 'selected': False, 'width': '500'}, 'reviews.notes': {'class': 'th', 'label': 'Notes', 'selected': False, 'width': '500'}, 'reviews.occurrence': {'class': 'th', 'label': 'Occurrence', 'selected': False, 'truncate': 15, 'width': '50'}, 'reviews.reason': {'class': 'th', 'label': 'Reason', 'selected': False, 'width': '500'}, 'reviews.reviewDate': {'class': 'th', 'label': 'Date', 'selected': False, 'truncate': 25, 'width': '150'}, 'reviews.user': {'class': 'th', 'label': 'User', 'selected': False, 'truncate': 25, 'width': '30'}}"
p234
sS'orderby'
p235
S'None'
p236
sS'c'
S"{'class': '', 'content': <function <lambda>>, 'label': '', 'selected': False, 'width': ''}"
p237
sS'linkto'
p238
S'None'
p239
sS'attrcol'
p240
S"{'_class': 'th'}"
p241
sS'cid'
p242
S'None'
p243
sS'colgroup'
p244
g201
sS'upload'
p245
S'None'
p246
sS'record'
p247
S"<Row {'occurrence': 'Intermittent', 'reviewDate'...y to become unstable. Need more investigation.'}>"
p248
sS'r'
S"'11:59:00  11:59:00.261 ERROR - Error encountered...ture field and FCS: 64 bytes. Required: 66 bytes.'"
p249
sS'fieldname'
p250
S"'failure'"
p251
sS'components'
p252
S'[<gluon.html.THEAD object>]'
p253
sS'attributes'
p254
g45
sssS'traceback'
p255
S'Traceback (most recent call last):\n  File "/Users/cmorikuni/Desktop/web2py/web2py.app/Contents/Resources/gluon/restricted.py", line 220, in restricted\n    exec ccode in environment\n  File "/Users/cmorikuni/Desktop/web2py/web2py.app/Contents/Resources/applications/RegressionReport/controllers/default.py", line 259, in <module>\n  File "/Users/cmorikuni/Desktop/web2py/web2py.app/Contents/Resources/gluon/globals.py", line 385, in <lambda>\n    self._caller = lambda f: f()\n  File "/Users/cmorikuni/Desktop/web2py/web2py.app/Contents/Resources/applications/RegressionReport/controllers/default.py", line 149, in view\n    form = tableView(failureId)\n  File "/Users/cmorikuni/Desktop/web2py/web2py.app/Contents/Resources/applications/RegressionReport/controllers/default.py", line 143, in tableView\n    form = SQLTABLE(reviewIds, headers=headers, columns=columns, extracolumns=extracolumns)\n  File "/Users/cmorikuni/Desktop/web2py/web2py.app/Contents/Resources/gluon/sqlhtml.py", line 3065, in __init__\n    if isinstance(headers[colname][\'truncate\'], int):\nKeyError: \'truncate\'\n'
p256
s.