(dp1
S'output'
p2
S"<type 'exceptions.AttributeError'> 'Row' object has no attribute 'reviews'"
p3
sS'layer'
p4
S'C:\\web2py\\applications\\RegressionReport\\controllers/default.py'
p5
sS'code'
p6
S'# -*- coding: utf-8 -*-\n# this file is released under public domain and you can use without limitations\n\n#########################################################################\n## This is a sample controller\n## - index is the default action of any application\n## - user is required for authentication and authorization\n## - download is for downloading files uploaded in the db (does streaming)\n## - call exposes all registered services (none by default)\n#########################################################################\nfrom loadxls import load\nimport datetime\n\nclass index(object):\n    def __init__(self):\n        print \'index class\'\n        redirect(URL(\'index?keywords=runs.date+contains+"2014.06.22"\'))\n\ndef index_init():\n    index_init.counter += 1\n    if index_init.counter is 1:\n        print \'index_init\' + str(index_init.counter)\n        redirect(URL(\'index?keywords=runs.date+contains+"2014.06.22"\'))\nindex_init.counter = 0\n\ndef index():\n    #init = index()\n    \n    # Grid\n    db.reviews.id.readable=False # Since we do not want to expose the id field on the grid\n    db.reviews.id.writable=False\n    db.reviews.failureId.writable=False\n    db.reviews.reviewDate.writable=False\n    db.runs.runLink.readable=False\n    db.testcases.testcaseLink.readable=False\n    db.failures.failLink.readable=False\n\n    #Define the query object. Here we are pulling all contacts having date of birth less than 18 Nov 1990\n    queryStr = (db.reviews.failureId == db.failures.id)&(db.failures.testcaseId == db.testcases.id)&(db.failures.runId == db.runs.id)&(db.failures.moduleId == db.modules.id)&(db.runs.jobId == db.jobs.id)\n    query=(queryStr)\n\n    #Define the fields to show on grid. Note: (you need to specify id field in fields section in 1.99.2\n    # this is not required in later versions)\n    fields = (db.jobs.jobName, db.jobs.branch, \n              db.runs.build, db.runs.date, db.runs.runLink,\n              db.modules.moduleName, \n              db.testcases.testcaseName, db.testcases.testcaseLink,\n              db.failures.failStatus, db.failures.failLink,\n              db.reviews.id, db.reviews.failureId, db.reviews.reviewDate, db.reviews.user, db.reviews.failure, db.reviews.occurrence, db.reviews.reason, db.reviews.action, db.reviews.notes)\n\n    db.jobs.jobName.represent = lambda val,row: A(val, _href=row.runs.runLink) if row.runs.runLink is not None else val\n    db.testcases.testcaseName.represent = lambda val,row: A(val, _href=row.testcases.testcaseLink) if row.testcases.testcaseLink is not None else val\n    db.failures.failStatus.represent = lambda val,row: A(val, _href=row.failures.failLink) if row.failures.failLink is not None else val\n    \n    #Define headers as tuples/dictionaries\n    headers = {\'jobs.jobName\': \'Job Name\',\n               \'jobs.branch\': \'Branch\',\n               \'runs.build\': \'Build\',\n               \'runs.date\': \'Date\',\n               \'modules.moduleName\': \'Module\',\n               \'testcases.testcaseName\': \'Test Case\',\n               \'failures.failStatus\': \'Status\',\n               \'reviews.reviewDate\': \'Review Date\',\n               \'reviews.user\': \'User\',\n               \'reviews.failure\': \'Failure\',\n               \'reviews.occurrence\': \'Occurrence\',\n               \'reviews.reason\': \'Reason\',\n               \'reviews.action\': \'Action\',\n               \'reviews.notes\': \'Notes\'}\n\n    #Let\'s specify a default sort order\n    default_sort_order=[db.runs.date]\n\n    # Export classes\n    exportclasses=dict(\n        csv_with_hidden_cols=False,\n        xml=False,\n        html=False,\n        csv=False,\n        json=False,\n        tsv_with_hidden_cols=False,\n        tsv=False)\n    \n    # Links\n    links = [lambda row: A(row.reviews.failureId, _href=URL("default", "index/view/reviews", args=[row.reviews.failureId]))]\n    \n    #Creating the grid object\n    grid = SQLFORM.grid(query=query, fields=fields, field_id=db.reviews.id, headers=headers, orderby=default_sort_order, links=links, \n                        create=True, deletable=True, editable=True, exportclasses=exportclasses, maxtextlength=250, paginate=100, user_signature=False)\n\n    form=FORM(\'Load Report:\',\n        INPUT(_type=\'file\', _name=\'reportFile\', requires=IS_NOT_EMPTY()),\n        INPUT(_type=\'submit\', _value=\'Load Report\'))\n\n    loaded = None\n    if form.accepts(request,session):\n        response.flash = \'form accepted\'\n        filename = request.vars.reportFile.filename\n        data = request.vars.reportFile.file.read()\n        xlsLoader = load.XlsLoader()\n        loadComplete = xlsLoader.load(filename, data)\n        if loadComplete is not None:\n            loaded = \'File \' + filename + \' is loaded\'\n        else:\n            loaded = \'File \' + filename + \' failed to load\'\n    elif form.errors:\n        response.flash = \'form has errors\'\n    \n    return dict(form=form, loaded=loaded, grid=grid)\n\n\n\ndef view():\n    """\n    The function pre-populates the data from the note instance\n    that has been requested to be edited and renders it,\n    once client sends in some data, it saves it in the database\n    """\n    review = db.reviews(request.args(0)) or redirect(URL(\'error\'))\n    form = SQLFORM(db.reviews, review, deletable=True)\n    if form.validate():\n        if form.deleted:\n            db(db.reviews.id==review.id).delete()\n            redirect(URL(\'index\'))\n        else:\n            review.update_record(**dict(form.vars))\n            response.flash = \'records changed\'\n    else:\n        response.flash = \'Something went wrong\'\n    return dict(form=form)\n\n\ndef create():\n    """\n    Generates a form corresponding to the model and\n    renders it, if the form sends some data, the function\n    validates the data and saves the data in the database.\n    """\n\n    response.flash = T("This is the create page")\n    form = SQLFORM(db.reviews)\n    if form.process().accepted:\n        response.flash = \'form accepted\'\n    elif form.errors:\n        response.flash = \'form has errors\'\n    else:\n        response.flash = \'please fill the form\'\n    return dict(form=form)\n\n\ndef edit():\n    """\n    The function pre-populates the data from the note instance\n    that has been requested to be edited and renders it,\n    once client sends in some data, it saves it in the database\n    """\n    review = db.reviews(request.args(0)) or redirect(URL(\'error\'))\n    form = SQLFORM(db.reviews, review, deletable=True)\n    if form.validate():\n        if form.deleted:\n            db(db.reviews.id==review.id).delete()\n            redirect(URL(\'index\'))\n        else:\n            review.update_record(**dict(form.vars))\n            response.flash = \'records changed\'\n    else:\n        response.flash = \'Something went wrong\'\n    return dict(form=form)\n\n\ndef user():\n    """\n    exposes:\n    http://..../[app]/default/user/login\n    http://..../[app]/default/user/logout\n    http://..../[app]/default/user/register\n    http://..../[app]/default/user/profile\n    http://..../[app]/default/user/retrieve_password\n    http://..../[app]/default/user/change_password\n    http://..../[app]/default/user/manage_users (requires membership in\n    use @auth.requires_login()\n        @auth.requires_membership(\'group name\')\n        @auth.requires_permission(\'read\',\'table name\',record_id)\n    to decorate functions that need access control\n    """\n    return dict(form=auth())\n\n@cache.action()\ndef download():\n    """\n    allows downloading of uploaded files\n    http://..../[app]/default/download/[filename]\n    """\n    return response.download(request, db)\n\n\ndef call():\n    """\n    exposes services. for example:\n    http://..../[app]/default/call/jsonrpc\n    decorate with @services.jsonrpc the functions to expose\n    supports xml, json, xmlrpc, jsonrpc, amfrpc, rss, csv\n    """\n    return service()\n\n\n@auth.requires_signature()\ndef data():\n    """\n    http://..../[app]/default/data/tables\n    http://..../[app]/default/data/create/[table]\n    http://..../[app]/default/data/read/[table]/[id]\n    http://..../[app]/default/data/update/[table]/[id]\n    http://..../[app]/default/data/delete/[table]/[id]\n    http://..../[app]/default/data/select/[table]\n    http://..../[app]/default/data/search/[table]\n    but URLs must be signed, i.e. linked with\n      A(\'table\',_href=URL(\'data/tables\',user_signature=True))\n    or with the signed load operator\n      LOAD(\'default\',\'data.load\',args=\'tables\',ajax=True,user_signature=True)\n    """\n    return dict(form=crud())\n\nresponse._vars=response._caller(index)\n'
p7
sS'snapshot'
p8
(dp9
S'exception'
p10
(dp11
S'__hash__'
p12
S"<method-wrapper '__hash__' of exceptions.AttributeError object>"
p13
sS'__setattr__'
p14
S"<method-wrapper '__setattr__' of exceptions.AttributeError object>"
p15
sS'__reduce_ex__'
p16
S'<built-in method __reduce_ex__ of exceptions.AttributeError object>'
p17
sS'__getslice__'
p18
S"<method-wrapper '__getslice__' of exceptions.AttributeError object>"
p19
sS'__getitem__'
p20
S"<method-wrapper '__getitem__' of exceptions.AttributeError object>"
p21
sS'__setstate__'
p22
S'<built-in method __setstate__ of exceptions.AttributeError object>'
p23
sS'__reduce__'
p24
S'<built-in method __reduce__ of exceptions.AttributeError object>'
p25
sS'__str__'
p26
S"<method-wrapper '__str__' of exceptions.AttributeError object>"
p27
sS'__format__'
p28
S'<built-in method __format__ of exceptions.AttributeError object>'
p29
sS'__getattribute__'
p30
S"<method-wrapper '__getattribute__' of exceptions.AttributeError object>"
p31
sS'__class__'
p32
S"<type 'exceptions.AttributeError'>"
p33
sS'__unicode__'
p34
S'<built-in method __unicode__ of exceptions.AttributeError object>'
p35
sS'__delattr__'
p36
S"<method-wrapper '__delattr__' of exceptions.AttributeError object>"
p37
sS'__subclasshook__'
p38
S'<built-in method __subclasshook__ of type object>'
p39
sS'__repr__'
p40
S"<method-wrapper '__repr__' of exceptions.AttributeError object>"
p41
sS'args'
p42
S'("\'Row\' object has no attribute \'reviews\'",)'
p43
sS'__dict__'
p44
S'{}'
p45
sS'__sizeof__'
p46
S'<built-in method __sizeof__ of exceptions.AttributeError object>'
p47
sS'__doc__'
p48
S"'Attribute not found.'"
p49
sS'__init__'
p50
S"<method-wrapper '__init__' of exceptions.AttributeError object>"
p51
sS'__new__'
p52
S'<built-in method __new__ of type object>'
p53
ssS'evalue'
p54
S"'Row' object has no attribute 'reviews'"
p55
sS'request'
p56
cgluon.html
XML_unpickle
p57
(S's\x1aa\x00\x00<div><table><tr><td style="font-weight:bold;vertical-align:top;">ajax</td><td style="vertical-align:top;">:</td><td><div>False</div></td></tr><tr><td style="font-weight:bold;vertical-align:top;">application</td><td style="vertical-align:top;">:</td><td><div>RegressionReport</div></td></tr><tr><td style="font-weight:bold;vertical-align:top;">args</td><td style="vertical-align:top;">:</td><td><div><table><tr><td><div>view</div></td></tr><tr><td><div>reviews</div></td></tr><tr><td><div>2</div></td></tr></table></div></td></tr><tr><td style="font-weight:bold;vertical-align:top;">cid</td><td style="vertical-align:top;">:</td><td><div>None</div></td></tr><tr><td style="font-weight:bold;vertical-align:top;">client</td><td style="vertical-align:top;">:</td><td><div>127.0.0.1</div></td></tr><tr><td style="font-weight:bold;vertical-align:top;">controller</td><td style="vertical-align:top;">:</td><td><div>default</div></td></tr><tr><td style="font-weight:bold;vertical-align:top;">cookies</td><td style="vertical-align:top;">:</td><td><div><table><tr><td style="font-weight:bold;vertical-align:top;">session_id_admin</td><td style="vertical-align:top;">:</td><td><div>127.0.0.1-8e849960-51a4-46fc-9939-e8dd434418d9<table><tr><td style="font-weight:bold;vertical-align:top;">comment</td><td style="vertical-align:top;">:</td><td><div></div></td></tr><tr><td style="font-weight:bold;vertical-align:top;">domain</td><td style="vertical-align:top;">:</td><td><div></div></td></tr><tr><td style="font-weight:bold;vertical-align:top;">expires</td><td style="vertical-align:top;">:</td><td><div></div></td></tr><tr><td style="font-weight:bold;vertical-align:top;">httponly</td><td style="vertical-align:top;">:</td><td><div></div></td></tr><tr><td style="font-weight:bold;vertical-align:top;">max-age</td><td style="vertical-align:top;">:</td><td><div></div></td></tr><tr><td style="font-weight:bold;vertical-align:top;">path</td><td style="vertical-align:top;">:</td><td><div></div></td></tr><tr><td style="font-weight:bold;vertical-align:top;">secure</td><td style="vertical-align:top;">:</td><td><div></div></td></tr><tr><td style="font-weight:bold;vertical-align:top;">version</td><td style="vertical-align:top;">:</td><td><div></div></td></tr></table></div></td></tr><tr><td style="font-weight:bold;vertical-align:top;">session_id_regressionreport</td><td style="vertical-align:top;">:</td><td><div>127.0.0.1-57a13436-13eb-47c8-a36e-c246b6b3d0af<table><tr><td style="font-weight:bold;vertical-align:top;">comment</td><td style="vertical-align:top;">:</td><td><div></div></td></tr><tr><td style="font-weight:bold;vertical-align:top;">domain</td><td style="vertical-align:top;">:</td><td><div></div></td></tr><tr><td style="font-weight:bold;vertical-align:top;">expires</td><td style="vertical-align:top;">:</td><td><div></div></td></tr><tr><td style="font-weight:bold;vertical-align:top;">httponly</td><td style="vertical-align:top;">:</td><td><div></div></td></tr><tr><td style="font-weight:bold;vertical-align:top;">max-age</td><td style="vertical-align:top;">:</td><td><div></div></td></tr><tr><td style="font-weight:bold;vertical-align:top;">path</td><td style="vertical-align:top;">:</td><td><div></div></td></tr><tr><td style="font-weight:bold;vertical-align:top;">secure</td><td style="vertical-align:top;">:</td><td><div></div></td></tr><tr><td style="font-weight:bold;vertical-align:top;">version</td><td style="vertical-align:top;">:</td><td><div></div></td></tr></table></div></td></tr><tr><td style="font-weight:bold;vertical-align:top;">session_id_stc</td><td style="vertical-align:top;">:</td><td><div>127.0.0.1-99e32855-4f69-43ff-b1c2-a296b5613525<table><tr><td style="font-weight:bold;vertical-align:top;">comment</td><td style="vertical-align:top;">:</td><td><div></div></td></tr><tr><td style="font-weight:bold;vertical-align:top;">domain</td><td style="vertical-align:top;">:</td><td><div></div></td></tr><tr><td style="font-weight:bold;vertical-align:top;">expires</td><td style="vertical-align:top;">:</td><td><div></div></td></tr><tr><td style="font-weight:bold;vertical-align:top;">httponly</td><td style="vertical-align:top;">:</td><td><div></div></td></tr><tr><td style="font-weight:bold;vertical-align:top;">max-age</td><td style="vertical-align:top;">:</td><td><div></div></td></tr><tr><td style="font-weight:bold;vertical-align:top;">path</td><td style="vertical-align:top;">:</td><td><div></div></td></tr><tr><td style="font-weight:bold;vertical-align:top;">secure</td><td style="vertical-align:top;">:</td><td><div></div></td></tr><tr><td style="font-weight:bold;vertical-align:top;">version</td><td style="vertical-align:top;">:</td><td><div></div></td></tr></table></div></td></tr><tr><td style="font-weight:bold;vertical-align:top;">session_id_welcome</td><td style="vertical-align:top;">:</td><td><div>127.0.0.1-0bdfda10-128a-4367-b6d3-29d20cd69f91<table><tr><td style="font-weight:bold;vertical-align:top;">comment</td><td style="vertical-align:top;">:</td><td><div></div></td></tr><tr><td style="font-weight:bold;vertical-align:top;">domain</td><td style="vertical-align:top;">:</td><td><div></div></td></tr><tr><td style="font-weight:bold;vertical-align:top;">expires</td><td style="vertical-align:top;">:</td><td><div></div></td></tr><tr><td style="font-weight:bold;vertical-align:top;">httponly</td><td style="vertical-align:top;">:</td><td><div></div></td></tr><tr><td style="font-weight:bold;vertical-align:top;">max-age</td><td style="vertical-align:top;">:</td><td><div></div></td></tr><tr><td style="font-weight:bold;vertical-align:top;">path</td><td style="vertical-align:top;">:</td><td><div></div></td></tr><tr><td style="font-weight:bold;vertical-align:top;">secure</td><td style="vertical-align:top;">:</td><td><div></div></td></tr><tr><td style="font-weight:bold;vertical-align:top;">version</td><td style="vertical-align:top;">:</td><td><div></div></td></tr></table></div></td></tr></table></div></td></tr><tr><td style="font-weight:bold;vertical-align:top;">env</td><td style="vertical-align:top;">:</td><td><div><table><tr><td style="font-weight:bold;vertical-align:top;">HTTP_ACCEPT</td><td style="vertical-align:top;">:</td><td><div>text/html,application/xhtml+xml,application/xml;q=0.9,image/webp,*/*;q=0.8</div></td></tr><tr><td style="font-weight:bold;vertical-align:top;">HTTP_ACCEPT_ENCODING</td><td style="vertical-align:top;">:</td><td><div>gzip,deflate,sdch</div></td></tr><tr><td style="font-weight:bold;vertical-align:top;">HTTP_ACCEPT_LANGUAGE</td><td style="vertical-align:top;">:</td><td><div>en-US,en;q=0.8</div></td></tr><tr><td style="font-weight:bold;vertical-align:top;">HTTP_CONNECTION</td><td style="vertical-align:top;">:</td><td><div>keep-alive</div></td></tr><tr><td style="font-weight:bold;vertical-align:top;">HTTP_COOKIE</td><td style="vertical-align:top;">:</td><td><div>session_id_stc=127.0.0.1-99e32855-4f69-43ff-b1c2-a296b5613525; session_id_welcome=127.0.0.1-0bdfda10-128a-4367-b6d3-29d20cd69f91; session_id_admin=127.0.0.1-8e849960-51a4-46fc-9939-e8dd434418d9; session_id_regressionreport=127.0.0.1-57a13436-13eb-47c8-a36e-c246b6b3d0af</div></td></tr><tr><td style="font-weight:bold;vertical-align:top;">HTTP_HOST</td><td style="vertical-align:top;">:</td><td><div>127.0.0.1:8000</div></td></tr><tr><td style="font-weight:bold;vertical-align:top;">HTTP_REFERER</td><td style="vertical-align:top;">:</td><td><div>http://127.0.0.1:8000/RegressionReport</div></td></tr><tr><td style="font-weight:bold;vertical-align:top;">HTTP_USER_AGENT</td><td style="vertical-align:top;">:</td><td><div>Mozilla/5.0 (Windows NT 6.1; WOW64) AppleWebKit/537.36 (KHTML, like Gecko) Chrome/35.0.1916.153 Safari/537.36</div></td></tr><tr><td style="font-weight:bold;vertical-align:top;">PATH_INFO</td><td style="vertical-align:top;">:</td><td><div>/RegressionReport/default/index/view/reviews/2</div></td></tr><tr><td style="font-weight:bold;vertical-align:top;">QUERY_STRING</td><td style="vertical-align:top;">:</td><td><div></div></td></tr><tr><td style="font-weight:bold;vertical-align:top;">REMOTE_ADDR</td><td style="vertical-align:top;">:</td><td><div>127.0.0.1</div></td></tr><tr><td style="font-weight:bold;vertical-align:top;">REMOTE_PORT</td><td style="vertical-align:top;">:</td><td><div>59647</div></td></tr><tr><td style="font-weight:bold;vertical-align:top;">REQUEST_METHOD</td><td style="vertical-align:top;">:</td><td><div>GET</div></td></tr><tr><td style="font-weight:bold;vertical-align:top;">SCRIPT_NAME</td><td style="vertical-align:top;">:</td><td><div></div></td></tr><tr><td style="font-weight:bold;vertical-align:top;">SERVER_NAME</td><td style="vertical-align:top;">:</td><td><div>HON-CYSMJM1</div></td></tr><tr><td style="font-weight:bold;vertical-align:top;">SERVER_PORT</td><td style="vertical-align:top;">:</td><td><div>8000</div></td></tr><tr><td style="font-weight:bold;vertical-align:top;">SERVER_PROTOCOL</td><td style="vertical-align:top;">:</td><td><div>HTTP/1.1</div></td></tr><tr><td style="font-weight:bold;vertical-align:top;">SERVER_SOFTWARE</td><td style="vertical-align:top;">:</td><td><div>Rocket 1.2.6</div></td></tr><tr><td style="font-weight:bold;vertical-align:top;">app_folders</td><td style="vertical-align:top;">:</td><td><div>set([&#x27;C:\\\\web2py\\\\applications\\\\STC\\\\&#x27;, &#x27;C:\\\\web2py\\\\applications\\\\admin\\\\&#x27;, &#x27;C:\\\\web2py\\\\applications\\\\RegressionReport\\\\&#x27;, &#x27;C:\\\\web2py\\\\applications\\\\welcome\\\\&#x27;])</div></td></tr><tr><td style="font-weight:bold;vertical-align:top;">applications_parent</td><td style="vertical-align:top;">:</td><td><div>C:\\web2py</div></td></tr><tr><td style="font-weight:bold;vertical-align:top;">cmd_args</td><td style="vertical-align:top;">:</td><td><div><table></table></div></td></tr><tr><td style="font-weight:bold;vertical-align:top;">cmd_options</td><td style="vertical-align:top;">:</td><td><div>&lt;Values at 0x32eb760: {&#x27;verbose&#x27;: False, &#x27;ip&#x27;: &#x27;127.0.0.1&#x27;, &#x27;debuglevel&#x27;: 30, &#x27;with_scheduler&#x27;: False, &#x27;ips&#x27;: [&#x27;10.15.108.46&#x27;, &#x27;fe80::2caf:4b87:2fc5:48b0%11&#x27;], &#x27;shutdown_timeout&#x27;: 5, &#x27;taskbar&#x27;: False, &#x27;with_coverage&#x27;: False, &#x27;port&#x27;: 8000, &#x27;maxthreads&#x27;: None, &#x27;softcron&#x27;: False, &#x27;server_name&#x27;: &#x27;HON-CYSMJM1&#x27;, &#x27;bpython&#x27;: False, &#x27;nogui&#x27;: False, &#x27;pid_filename&#x27;: &#x27;httpserver.pid&#x27;, &#x27;extcron&#x27;: False, &#x27;runcron&#x27;: False, &#x27;run_system_tests&#x27;: False, &#x27;test&#x27;: None, &#x27;folder&#x27;: &#x27;C:\\\\web2py&#x27;, &#x27;config&#x27;: &#x27;&#x27;, &#x27;minthreads&#x27;: None, &#x27;shell&#x27;: None, &#x27;run&#x27;: &#x27;&#x27;, &#x27;log_filename&#x27;: &#x27;httpserver.log&#x27;, &#x27;profiler_dir&#x27;: None, &#x27;args&#x27;: [&#x27;&#x27;], &#x27;socket_timeout&#x27;: 5, &#x27;ssl_ca_certificate&#x27;: None, &#x27;scheduler&#x27;: None, &#x27;interfaces&#x27;: None, &#x27;ssl_private_key&#x27;: &#x27;&#x27;, &#x27;scheduler_groups&#x27;: None, &#x27;password&#x27;: &#x27;&lt;ask&gt;&#x27;, &#x27;request_queue_size&#x27;: 5, &#x27;ssl_certificate&#x27;: &#x27;&#x27;, &#x27;cronjob&#x27;: False, &#x27;numthreads&#x27;: None, &#x27;quiet&#x27;: False, &#x27;import_models&#x27;: False, &#x27;timeout&#x27;: 10, &#x27;plain&#x27;: False, &#x27;nobanner&#x27;: False}&gt;</div></td></tr><tr><td style="font-weight:bold;vertical-align:top;">db_sessions</td><td style="vertical-align:top;">:</td><td><div>set([])</div></td></tr><tr><td style="font-weight:bold;vertical-align:top;">debugging</td><td style="vertical-align:top;">:</td><td><div>True</div></td></tr><tr><td style="font-weight:bold;vertical-align:top;">gluon_parent</td><td style="vertical-align:top;">:</td><td><div>C:\\web2py</div></td></tr><tr><td style="font-weight:bold;vertical-align:top;">http_accept</td><td style="vertical-align:top;">:</td><td><div>text/html,application/xhtml+xml,application/xml;q=0.9,image/webp,*/*;q=0.8</div></td></tr><tr><td style="font-weight:bold;vertical-align:top;">http_accept_encoding</td><td style="vertical-align:top;">:</td><td><div>gzip,deflate,sdch</div></td></tr><tr><td style="font-weight:bold;vertical-align:top;">http_accept_language</td><td style="vertical-align:top;">:</td><td><div>en-US,en;q=0.8</div></td></tr><tr><td style="font-weight:bold;vertical-align:top;">http_connection</td><td style="vertical-align:top;">:</td><td><div>keep-alive</div></td></tr><tr><td style="font-weight:bold;vertical-align:top;">http_cookie</td><td style="vertical-align:top;">:</td><td><div>session_id_stc=127.0.0.1-99e32855-4f69-43ff-b1c2-a296b5613525; session_id_welcome=127.0.0.1-0bdfda10-128a-4367-b6d3-29d20cd69f91; session_id_admin=127.0.0.1-8e849960-51a4-46fc-9939-e8dd434418d9; session_id_regressionreport=127.0.0.1-57a13436-13eb-47c8-a36e-c246b6b3d0af</div></td></tr><tr><td style="font-weight:bold;vertical-align:top;">http_host</td><td style="vertical-align:top;">:</td><td><div>127.0.0.1:8000</div></td></tr><tr><td style="font-weight:bold;vertical-align:top;">http_referer</td><td style="vertical-align:top;">:</td><td><div>http://127.0.0.1:8000/RegressionReport</div></td></tr><tr><td style="font-weight:bold;vertical-align:top;">http_user_agent</td><td style="vertical-align:top;">:</td><td><div>Mozilla/5.0 (Windows NT 6.1; WOW64) AppleWebKit/537.36 (KHTML, like Gecko) Chrome/35.0.1916.153 Safari/537.36</div></td></tr><tr><td style="font-weight:bold;vertical-align:top;">is_jython</td><td style="vertical-align:top;">:</td><td><div>False</div></td></tr><tr><td style="font-weight:bold;vertical-align:top;">is_pypy</td><td style="vertical-align:top;">:</td><td><div>False</div></td></tr><tr><td style="font-weight:bold;vertical-align:top;">is_source</td><td style="vertical-align:top;">:</td><td><div>False</div></td></tr><tr><td style="font-weight:bold;vertical-align:top;">local_hosts</td><td style="vertical-align:top;">:</td><td><div><table><tr><td><div>HON-CYSMJM1</div></td></tr><tr><td><div>HON-CYSMJM1.ad.spirentcom.com</div></td></tr><tr><td><div>::ffff:127.0.0.1</div></td></tr><tr><td><div>::1</div></td></tr><tr><td><div>fe80::2caf:4b87:2fc5:48b0%11</div></td></tr><tr><td><div>10.15.108.46</div></td></tr><tr><td><div>127.0.0.1</div></td></tr></table></div></td></tr><tr><td style="font-weight:bold;vertical-align:top;">path_info</td><td style="vertical-align:top;">:</td><td><div>/RegressionReport/default/index/view/reviews/2</div></td></tr><tr><td style="font-weight:bold;vertical-align:top;">query_string</td><td style="vertical-align:top;">:</td><td><div></div></td></tr><tr><td style="font-weight:bold;vertical-align:top;">remote_addr</td><td style="vertical-align:top;">:</td><td><div>127.0.0.1</div></td></tr><tr><td style="font-weight:bold;vertical-align:top;">remote_port</td><td style="vertical-align:top;">:</td><td><div>59647</div></td></tr><tr><td style="font-weight:bold;vertical-align:top;">request_method</td><td style="vertical-align:top;">:</td><td><div>GET</div></td></tr><tr><td style="font-weight:bold;vertical-align:top;">request_uri</td><td style="vertical-align:top;">:</td><td><div>/RegressionReport/default/index/view/reviews/2</div></td></tr><tr><td style="font-weight:bold;vertical-align:top;">script_name</td><td style="vertical-align:top;">:</td><td><div></div></td></tr><tr><td style="font-weight:bold;vertical-align:top;">server_name</td><td style="vertical-align:top;">:</td><td><div>HON-CYSMJM1</div></td></tr><tr><td style="font-weight:bold;vertical-align:top;">server_port</td><td style="vertical-align:top;">:</td><td><div>8000</div></td></tr><tr><td style="font-weight:bold;vertical-align:top;">server_protocol</td><td style="vertical-align:top;">:</td><td><div>HTTP/1.1</div></td></tr><tr><td style="font-weight:bold;vertical-align:top;">server_software</td><td style="vertical-align:top;">:</td><td><div>Rocket 1.2.6</div></td></tr><tr><td style="font-weight:bold;vertical-align:top;">web2py_path</td><td style="vertical-align:top;">:</td><td><div>C:\\web2py</div></td></tr><tr><td style="font-weight:bold;vertical-align:top;">web2py_version</td><td style="vertical-align:top;">:</td><td><div>2.9.5-stable+timestamp.2014.03.20.22.57.13</div></td></tr><tr><td style="font-weight:bold;vertical-align:top;">wsgi.errors</td><td style="vertical-align:top;">:</td><td><div>&lt;open file &#x27;&lt;stderr&gt;&#x27;, mode &#x27;w&#x27; at 0x004560D0&gt;</div></td></tr><tr><td style="font-weight:bold;vertical-align:top;">wsgi.file_wrapper</td><td style="vertical-align:top;">:</td><td><div>&lt;class wsgiref.util.FileWrapper at 0x032A59D0&gt;</div></td></tr><tr><td style="font-weight:bold;vertical-align:top;">wsgi.input</td><td style="vertical-align:top;">:</td><td><div>&lt;socket._fileobject object at 0x07113CF0&gt;</div></td></tr><tr><td style="font-weight:bold;vertical-align:top;">wsgi.multiprocess</td><td style="vertical-align:top;">:</td><td><div>False</div></td></tr><tr><td style="font-weight:bold;vertical-align:top;">wsgi.multithread</td><td style="vertical-align:top;">:</td><td><div>True</div></td></tr><tr><td style="font-weight:bold;vertical-align:top;">wsgi.run_once</td><td style="vertical-align:top;">:</td><td><div>False</div></td></tr><tr><td style="font-weight:bold;vertical-align:top;">wsgi.url_scheme</td><td style="vertical-align:top;">:</td><td><div>http</div></td></tr><tr><td style="font-weight:bold;vertical-align:top;">wsgi.version</td><td style="vertical-align:top;">:</td><td><div><table><tr><td><div>1</div></td></tr><tr><td><div>0</div></td></tr></table></div></td></tr><tr><td style="font-weight:bold;vertical-align:top;">wsgi_errors</td><td style="vertical-align:top;">:</td><td><div>&lt;open file &#x27;&lt;stderr&gt;&#x27;, mode &#x27;w&#x27; at 0x004560D0&gt;</div></td></tr><tr><td style="font-weight:bold;vertical-align:top;">wsgi_file_wrapper</td><td style="vertical-align:top;">:</td><td><div>&lt;class wsgiref.util.FileWrapper at 0x032A59D0&gt;</div></td></tr><tr><td style="font-weight:bold;vertical-align:top;">wsgi_input</td><td style="vertical-align:top;">:</td><td><div>&lt;socket._fileobject object at 0x07113CF0&gt;</div></td></tr><tr><td style="font-weight:bold;vertical-align:top;">wsgi_multiprocess</td><td style="vertical-align:top;">:</td><td><div>False</div></td></tr><tr><td style="font-weight:bold;vertical-align:top;">wsgi_multithread</td><td style="vertical-align:top;">:</td><td><div>True</div></td></tr><tr><td style="font-weight:bold;vertical-align:top;">wsgi_run_once</td><td style="vertical-align:top;">:</td><td><div>False</div></td></tr><tr><td style="font-weight:bold;vertical-align:top;">wsgi_url_scheme</td><td style="vertical-align:top;">:</td><td><div>http</div></td></tr><tr><td style="font-weight:bold;vertical-align:top;">wsgi_version</td><td style="vertical-align:top;">:</td><td><div><table><tr><td><div>1</div></td></tr><tr><td><div>0</div></td></tr></table></div></td></tr></table></div></td></tr><tr><td style="font-weight:bold;vertical-align:top;">extension</td><td style="vertical-align:top;">:</td><td><div>html</div></td></tr><tr><td style="font-weight:bold;vertical-align:top;">folder</td><td style="vertical-align:top;">:</td><td><div>C:\\web2py\\applications\\RegressionReport\\</div></td></tr><tr><td style="font-weight:bold;vertical-align:top;">function</td><td style="vertical-align:top;">:</td><td><div>index</div></td></tr><tr><td style="font-weight:bold;vertical-align:top;">global_settings</td><td style="vertical-align:top;">:</td><td><div><table><tr><td style="font-weight:bold;vertical-align:top;">app_folders</td><td style="vertical-align:top;">:</td><td><div>set([&#x27;C:\\\\web2py\\\\applications\\\\STC\\\\&#x27;, &#x27;C:\\\\web2py\\\\applications\\\\admin\\\\&#x27;, &#x27;C:\\\\web2py\\\\applications\\\\RegressionReport\\\\&#x27;, &#x27;C:\\\\web2py\\\\applications\\\\welcome\\\\&#x27;])</div></td></tr><tr><td style="font-weight:bold;vertical-align:top;">applications_parent</td><td style="vertical-align:top;">:</td><td><div>C:\\web2py</div></td></tr><tr><td style="font-weight:bold;vertical-align:top;">cmd_args</td><td style="vertical-align:top;">:</td><td><div><table></table></div></td></tr><tr><td style="font-weight:bold;vertical-align:top;">cmd_options</td><td style="vertical-align:top;">:</td><td><div>&lt;Values at 0x32eb760: {&#x27;verbose&#x27;: False, &#x27;ip&#x27;: &#x27;127.0.0.1&#x27;, &#x27;debuglevel&#x27;: 30, &#x27;with_scheduler&#x27;: False, &#x27;ips&#x27;: [&#x27;10.15.108.46&#x27;, &#x27;fe80::2caf:4b87:2fc5:48b0%11&#x27;], &#x27;shutdown_timeout&#x27;: 5, &#x27;taskbar&#x27;: False, &#x27;with_coverage&#x27;: False, &#x27;port&#x27;: 8000, &#x27;maxthreads&#x27;: None, &#x27;softcron&#x27;: False, &#x27;server_name&#x27;: &#x27;HON-CYSMJM1&#x27;, &#x27;bpython&#x27;: False, &#x27;nogui&#x27;: False, &#x27;pid_filename&#x27;: &#x27;httpserver.pid&#x27;, &#x27;extcron&#x27;: False, &#x27;runcron&#x27;: False, &#x27;run_system_tests&#x27;: False, &#x27;test&#x27;: None, &#x27;folder&#x27;: &#x27;C:\\\\web2py&#x27;, &#x27;config&#x27;: &#x27;&#x27;, &#x27;minthreads&#x27;: None, &#x27;shell&#x27;: None, &#x27;run&#x27;: &#x27;&#x27;, &#x27;log_filename&#x27;: &#x27;httpserver.log&#x27;, &#x27;profiler_dir&#x27;: None, &#x27;args&#x27;: [&#x27;&#x27;], &#x27;socket_timeout&#x27;: 5, &#x27;ssl_ca_certificate&#x27;: None, &#x27;scheduler&#x27;: None, &#x27;interfaces&#x27;: None, &#x27;ssl_private_key&#x27;: &#x27;&#x27;, &#x27;scheduler_groups&#x27;: None, &#x27;password&#x27;: &#x27;&lt;ask&gt;&#x27;, &#x27;request_queue_size&#x27;: 5, &#x27;ssl_certificate&#x27;: &#x27;&#x27;, &#x27;cronjob&#x27;: False, &#x27;numthreads&#x27;: None, &#x27;quiet&#x27;: False, &#x27;import_models&#x27;: False, &#x27;timeout&#x27;: 10, &#x27;plain&#x27;: False, &#x27;nobanner&#x27;: False}&gt;</div></td></tr><tr><td style="font-weight:bold;vertical-align:top;">db_sessions</td><td style="vertical-align:top;">:</td><td><div>set([])</div></td></tr><tr><td style="font-weight:bold;vertical-align:top;">debugging</td><td style="vertical-align:top;">:</td><td><div>True</div></td></tr><tr><td style="font-weight:bold;vertical-align:top;">gluon_parent</td><td style="vertical-align:top;">:</td><td><div>C:\\web2py</div></td></tr><tr><td style="font-weight:bold;vertical-align:top;">is_jython</td><td style="vertical-align:top;">:</td><td><div>False</div></td></tr><tr><td style="font-weight:bold;vertical-align:top;">is_pypy</td><td style="vertical-align:top;">:</td><td><div>False</div></td></tr><tr><td style="font-weight:bold;vertical-align:top;">is_source</td><td style="vertical-align:top;">:</td><td><div>False</div></td></tr><tr><td style="font-weight:bold;vertical-align:top;">local_hosts</td><td style="vertical-align:top;">:</td><td><div><table><tr><td><div>HON-CYSMJM1</div></td></tr><tr><td><div>HON-CYSMJM1.ad.spirentcom.com</div></td></tr><tr><td><div>::ffff:127.0.0.1</div></td></tr><tr><td><div>::1</div></td></tr><tr><td><div>fe80::2caf:4b87:2fc5:48b0%11</div></td></tr><tr><td><div>10.15.108.46</div></td></tr><tr><td><div>127.0.0.1</div></td></tr></table></div></td></tr><tr><td style="font-weight:bold;vertical-align:top;">web2py_version</td><td style="vertical-align:top;">:</td><td><div>2.9.5-stable+timestamp.2014.03.20.22.57.13</div></td></tr></table></div></td></tr><tr><td style="font-weight:bold;vertical-align:top;">is_https</td><td style="vertical-align:top;">:</td><td><div>False</div></td></tr><tr><td style="font-weight:bold;vertical-align:top;">is_local</td><td style="vertical-align:top;">:</td><td><div>True</div></td></tr><tr><td style="font-weight:bold;vertical-align:top;">is_restful</td><td style="vertical-align:top;">:</td><td><div>False</div></td></tr><tr><td style="font-weight:bold;vertical-align:top;">now</td><td style="vertical-align:top;">:</td><td><div>datetime.datetime(2014, 7, 8, 15, 11, 46, 963000)</div></td></tr><tr><td style="font-weight:bold;vertical-align:top;">raw_args</td><td style="vertical-align:top;">:</td><td><div>view/reviews/2</div></td></tr><tr><td style="font-weight:bold;vertical-align:top;">raw_extension</td><td style="vertical-align:top;">:</td><td><div>None</div></td></tr><tr><td style="font-weight:bold;vertical-align:top;">url</td><td style="vertical-align:top;">:</td><td><div>/RegressionReport/default/index/view/reviews/2</div></td></tr><tr><td style="font-weight:bold;vertical-align:top;">utcnow</td><td style="vertical-align:top;">:</td><td><div>datetime.datetime(2014, 7, 9, 1, 11, 46, 963000)</div></td></tr><tr><td style="font-weight:bold;vertical-align:top;">uuid</td><td style="vertical-align:top;">:</td><td><div>RegressionReport/127.0.0.1.2014-07-08.15-11-46.1d1d688d-30a2-4a5a-882b-887567f6c1f7</div></td></tr><tr><td style="font-weight:bold;vertical-align:top;">wsgi</td><td style="vertical-align:top;">:</td><td><div>&lt;gluon.main.LazyWSGI object at 0x08C50F50&gt;</div></td></tr></table></div>'
tRp58
sS'frames'
p59
(lp60
(dp61
S'file'
p62
S'C:\\home\\mdipierro\\make_web2py\\web2py\\gluon\\restricted.py'
p63
sS'dump'
p64
(dp65
sS'lnum'
p66
I220
sS'lines'
p67
(dp68
sS'call'
p69
S"(code='# -*- coding: utf-8 -*-\\n# this file is released ...=crud())\\n\\nresponse._vars=response._caller(index)\\n', environment={'A': <class 'gluon.html.A'>, 'ANY_OF': <class 'gluon.validators.ANY_OF'>, 'Auth': <class 'gluon.tools.Auth'>, 'B': <class 'gluon.html.B'>, 'BEAUTIFY': <class 'gluon.html.BEAUTIFY'>, 'BODY': <class 'gluon.html.BODY'>, 'BR': <class 'gluon.html.BR'>, 'BUTTON': <class 'gluon.html.BUTTON'>, 'CAT': <class 'gluon.html.CAT'>, 'CENTER': <class 'gluon.html.CENTER'>, ...}, layer=r'C:\\web2py\\applications\\RegressionReport\\controllers/default.py')"
p70
sS'func'
p71
S'restricted'
p72
sa(dp73
g62
S'C:\\web2py\\applications\\RegressionReport\\controllers\\default.py'
p74
sg64
(dp75
sg66
I224
sg67
(dp76
I213
S'    http://..../[app]/default/data/update/[table]/[id]'
p77
sI214
S'    http://..../[app]/default/data/delete/[table]/[id]'
p78
sI215
S'    http://..../[app]/default/data/select/[table]'
p79
sI216
S'    http://..../[app]/default/data/search/[table]'
p80
sI217
S'    but URLs must be signed, i.e. linked with'
p81
sI218
S"      A('table',_href=URL('data/tables',user_signature=True))"
p82
sI219
S'    or with the signed load operator'
p83
sI220
S"      LOAD('default','data.load',args='tables',ajax=True,user_signature=True)"
p84
sI221
S'    """'
p85
sI222
S'    return dict(form=crud())'
p86
ssg69
S'()'
p87
sg71
S'<module>'
p88
sa(dp89
g62
S'C:\\home\\mdipierro\\make_web2py\\web2py\\gluon\\globals.py'
p90
sg64
(dp91
sg66
I385
sg67
(dp92
sg69
S'(f=<function index>)'
p93
sg71
S'<lambda>'
p94
sa(dp95
g62
S'C:\\web2py\\applications\\RegressionReport\\controllers\\default.py'
p96
sg64
(dp97
S'maxtextlength'
p98
S'undefined'
p99
sS'builtinFalse'
p100
S'False'
p101
sS'builtinTrue'
p102
S'True'
p103
sS'paginate'
p104
g99
sS'editable'
p105
g99
sS'global create'
p106
S'<function create>'
p107
sS'user_signature'
p108
g99
sS'deletable'
p109
g99
sS'exportclasses'
p110
S"{'csv': False, 'csv_with_hidden_cols': False, 'html': False, 'json': False, 'tsv': False, 'tsv_with_hidden_cols': False, 'xml': False}"
p111
ssg66
I89
sg67
(dp112
I84
S'    # Links'
p113
sI85
S'    links = [lambda row: A(row.reviews.failureId, _href=URL("default", "index/view/reviews", args=[row.reviews.failureId]))]'
p114
sI86
S''
sI87
S'    #Creating the grid object'
p115
sI88
S'    grid = SQLFORM.grid(query=query, fields=fields, field_id=db.reviews.id, headers=headers, orderby=default_sort_order, links=links,'
p116
sI89
S'                        create=True, deletable=True, editable=True, exportclasses=exportclasses, maxtextlength=250, paginate=100, user_signature=False)'
p117
sI90
S''
sI91
S"    form=FORM('Load Report:',"
p118
sI92
S"        INPUT(_type='file', _name='reportFile', requires=IS_NOT_EMPTY()),"
p119
sI93
S"        INPUT(_type='submit', _value='Load Report'))"
p120
ssg69
S'()'
p121
sg71
S'index'
p122
sa(dp123
g62
S'C:\\home\\mdipierro\\make_web2py\\web2py\\gluon\\sqlhtml.py'
p124
sg64
(dp125
sg66
I2091
sg67
(dp126
sg69
S"(query=<Query (((((reviews.failureId = failures.id) AND...uleId = modules.id)) AND (runs.jobId = jobs.id))>, fields=(<gluon.dal.Field object>, <gluon.dal.Field object>, <gluon.dal.Field object>, <gluon.dal.Field object>, <gluon.dal.Field object>, <gluon.dal.Field object>, <gluon.dal.Field object>, <gluon.dal.Field object>, <gluon.dal.Field object>, <gluon.dal.Field object>, <gluon.dal.Field object>, <gluon.dal.Field object>, <gluon.dal.Field object>, <gluon.dal.Field object>, <gluon.dal.Field object>, <gluon.dal.Field object>, <gluon.dal.Field object>, <gluon.dal.Field object>, <gluon.dal.Field object>), field_id=<gluon.dal.Field object>, left=None, headers={'failures.failStatus': 'Status', 'jobs.branch': 'Branch', 'jobs.jobName': 'Job Name', 'modules.moduleName': 'Module', 'reviews.action': 'Action', 'reviews.failure': 'Failure', 'reviews.notes': 'Notes', 'reviews.occurrence': 'Occurrence', 'reviews.reason': 'Reason', 'reviews.reviewDate': 'Review Date', ...}, orderby=[<gluon.dal.Field object>], groupby=None, searchable=True, sortable=True, paginate=100, deletable=True, editable=True, details=True, selectable=None, create=True, csv=True, links=[<function <lambda>>], links_in_grid=True, upload=<function <lambda>>, args=[], user_signature=False, maxtextlengths={}, maxtextlength=250, onvalidation=None, onfailure=None, oncreate=None, onupdate=None, ondelete=None, sorter_icons=(<gluon.html.XML object>, <gluon.html.XML object>), ui={'button': 'button btn btn-default', 'buttonadd': 'icon plus icon-plus glyphicon glyphicon-plus', 'buttonback': 'icon leftarrow icon-arrow-left glyphicon glyphicon-arrow-left', 'buttondelete': 'icon trash icon-trash glyphicon glyphicon-trash', 'buttonedit': 'icon pen icon-pencil glyphicon glyphicon-arrow-pencil', 'buttonexport': 'icon downarrow icon-download glyphicon glyphicon-download', 'buttontable': 'icon rightarrow icon-arrow-right glyphicon glyphicon-arrow-right', 'buttontext': 'buttontext button', 'buttonview': 'icon magnifier icon-zoom-in glyphicon glyphicon-arrow-zoom-in', 'content': '', ...}, showbuttontext=True, _class='web2py_grid', formname='web2py_grid', search_widget='default', ignore_rw=False, formstyle='table3cols', exportclasses={'csv': False, 'csv_with_hidden_cols': False, 'html': False, 'json': False, 'tsv': False, 'tsv_with_hidden_cols': False, 'xml': False}, formargs={}, createargs={}, editargs={}, viewargs={}, selectable_submit_button='Submit', buttons_placement='right', links_placement='right', noconfirm=False, cache_count=None, client_side_delete=False, ignore_common_filters=None)"
p127
sg71
S'grid'
p128
sa(dp129
g62
S'C:\\home\\mdipierro\\make_web2py\\web2py\\gluon\\sqlhtml.py'
p130
sg64
(dp131
sg66
I2045
sg67
(dp132
sg69
S"(edit=True, view=False, record=<Row {'occurrence': 'Constant', 'reviewDate': '2...action': 'Set to Being Fixed w CR', 'notes': ''}>)"
p133
sg71
S'buttons'
p134
sa(dp135
g62
S'C:\\web2py\\applications\\RegressionReport\\controllers\\default.py'
p136
sg64
(dp137
S'_href'
p138
g99
sS'links'
p139
g99
sS'args'
p140
g99
sS'row.reviews'
p141
g99
sS'global URL'
p142
S'<function URL>'
p143
sS'global A'
p144
S"<class 'gluon.html.A'>"
p145
sS'row'
p146
S"<Row {'occurrence': 'Constant', 'reviewDate': '2...action': 'Set to Being Fixed w CR', 'notes': ''}>"
p147
ssg66
I85
sg67
(dp148
I80
S'        json=False,'
p149
sI81
S'        tsv_with_hidden_cols=False,'
p150
sI82
S'        tsv=False)'
p151
sI83
S''
sI84
S'    # Links'
p152
sI85
S'    links = [lambda row: A(row.reviews.failureId, _href=URL("default", "index/view/reviews", args=[row.reviews.failureId]))]'
p153
sI86
S''
sI87
S'    #Creating the grid object'
p154
sI88
S'    grid = SQLFORM.grid(query=query, fields=fields, field_id=db.reviews.id, headers=headers, orderby=default_sort_order, links=links,'
p155
sI89
S'                        create=True, deletable=True, editable=True, exportclasses=exportclasses, maxtextlength=250, paginate=100, user_signature=False)'
p156
ssg69
S"(row=<Row {'occurrence': 'Constant', 'reviewDate': '2...action': 'Set to Being Fixed w CR', 'notes': ''}>)"
p157
sg71
g94
sa(dp158
g62
S'C:\\home\\mdipierro\\make_web2py\\web2py\\gluon\\dal.py'
p159
sg64
(dp160
sg66
I7343
sg67
(dp161
sg69
S"(self=<Row {'occurrence': 'Constant', 'reviewDate': '2...action': 'Set to Being Fixed w CR', 'notes': ''}>, k='reviews')"
p162
sg71
g20
sasS'pyver'
p163
S'Python 2.7.6: C:\\web2py\\web2py.exe (prefix: C:\\Python27)'
p164
sS'session'
p165
g57
(S's:\x01\x00\x00<div><table><tr><td style="font-weight:bold;vertical-align:top;">last_orderby</td><td style="vertical-align:top;">:</td><td><div>None</div></td></tr><tr><td style="font-weight:bold;vertical-align:top;">last_query</td><td style="vertical-align:top;">:</td><td><div>db.auth_user.id&gt;0</div></td></tr></table></div>'
tRp166
sS'etype'
p167
S"<type 'exceptions.AttributeError'>"
p168
sS'date'
p169
S'Tue Jul 08 15:11:47 2014'
p170
sS'response'
p171
g57
(S's\xf71\x00\x00<div><table><tr><td style="font-weight:bold;vertical-align:top;">body</td><td style="vertical-align:top;">:</td><td><div>&lt;cStringIO.StringO object at 0x07D3A560&gt;</div></td></tr><tr><td style="font-weight:bold;vertical-align:top;">cookies</td><td style="vertical-align:top;">:</td><td><div><table><tr><td style="font-weight:bold;vertical-align:top;">session_id_regressionreport</td><td style="vertical-align:top;">:</td><td><div>127.0.0.1-57a13436-13eb-47c8-a36e-c246b6b3d0af<table><tr><td style="font-weight:bold;vertical-align:top;">comment</td><td style="vertical-align:top;">:</td><td><div></div></td></tr><tr><td style="font-weight:bold;vertical-align:top;">domain</td><td style="vertical-align:top;">:</td><td><div></div></td></tr><tr><td style="font-weight:bold;vertical-align:top;">expires</td><td style="vertical-align:top;">:</td><td><div></div></td></tr><tr><td style="font-weight:bold;vertical-align:top;">httponly</td><td style="vertical-align:top;">:</td><td><div></div></td></tr><tr><td style="font-weight:bold;vertical-align:top;">max-age</td><td style="vertical-align:top;">:</td><td><div></div></td></tr><tr><td style="font-weight:bold;vertical-align:top;">path</td><td style="vertical-align:top;">:</td><td><div>/</div></td></tr><tr><td style="font-weight:bold;vertical-align:top;">secure</td><td style="vertical-align:top;">:</td><td><div></div></td></tr><tr><td style="font-weight:bold;vertical-align:top;">version</td><td style="vertical-align:top;">:</td><td><div></div></td></tr></table></div></td></tr></table></div></td></tr><tr><td style="font-weight:bold;vertical-align:top;">delimiters</td><td style="vertical-align:top;">:</td><td><div><table><tr><td><div>{{</div></td></tr><tr><td><div>}}</div></td></tr></table></div></td></tr><tr><td style="font-weight:bold;vertical-align:top;">files</td><td style="vertical-align:top;">:</td><td><div><table></table></div></td></tr><tr><td style="font-weight:bold;vertical-align:top;">flash</td><td style="vertical-align:top;">:</td><td><div></div></td></tr><tr><td style="font-weight:bold;vertical-align:top;">generic_patterns</td><td style="vertical-align:top;">:</td><td><div><table><tr><td><div>*</div></td></tr></table></div></td></tr><tr><td style="font-weight:bold;vertical-align:top;">google_analytics_id</td><td style="vertical-align:top;">:</td><td><div>None</div></td></tr><tr><td style="font-weight:bold;vertical-align:top;">headers</td><td style="vertical-align:top;">:</td><td><div><table><tr><td style="font-weight:bold;vertical-align:top;">X-Powered-By</td><td style="vertical-align:top;">:</td><td><div>web2py</div></td></tr></table></div></td></tr><tr><td style="font-weight:bold;vertical-align:top;">logo</td><td style="vertical-align:top;">:</td><td><div><a class="brand" href="http://www.web2py.com/"><b>web<span>2</span>py</b>&trade;&nbsp;</a></div></td></tr><tr><td style="font-weight:bold;vertical-align:top;">menu</td><td style="vertical-align:top;">:</td><td><div><table><tr><td><div><table><tr><td><div>Home</div></td></tr><tr><td><div>False</div></td></tr><tr><td><div>/RegressionReport/default/index</div></td></tr><tr><td><div><table></table></div></td></tr></table></div></td></tr><tr><td><div><table><tr><td><div><span class="highlighted">web2py</span></div></td></tr><tr><td><div>False</div></td></tr><tr><td><div>http://web2py.com</div></td></tr><tr><td><div><table><tr><td><div><table><tr><td><div>My Sites</div></td></tr><tr><td><div>False</div></td></tr><tr><td><div>/admin/default/site</div></td></tr></table></div></td></tr><tr><td><div><table><tr><td><div>This App</div></td></tr><tr><td><div>False</div></td></tr><tr><td><div>/admin/default/design/RegressionReport</div></td></tr><tr><td><div>[(&lt;lazyT &#x27;Controller&#x27;&gt;, False, &#x27;/admin/default/edit/RegressionReport/controllers/default.py&#x27;), (&lt;lazyT &#x27;View&#x27;&gt;, False, &#x27;/admin/default/edit/RegressionReport/views/default/index.html&#x27;), (&lt;lazyT &#x27;Layout&#x27;&gt;, False, &#x27;/admin/default/edit/RegressionReport/views/layout.html&#x27;), (&lt;lazyT &#x27;Stylesheet&#x27;&gt;, False, &#x27;/admin/default/edit/RegressionReport/static/css/web2py.css&#x27;), (&lt;lazyT &#x27;DB Model&#x27;&gt;, False, &#x27;/admin/default/edit/RegressionReport/models/db.py&#x27;), (&lt;lazyT &#x27;Menu Model&#x27;&gt;, False, &#x27;/admin/default/edit/RegressionReport/models/menu.py&#x27;), (&lt;lazyT &#x27;Database&#x27;&gt;, False, &#x27;/RegressionReport/appadmin/index&#x27;), (&lt;lazyT &#x27;Errors&#x27;&gt;, False, &#x27;/admin/default/errors/RegressionReport&#x27;), (&lt;lazyT &#x27;About&#x27;&gt;, False, &#x27;/admin/default/about/RegressionReport&#x27;)]</div></td></tr></table></div></td></tr><tr><td><div><table><tr><td><div>web2py.com</div></td></tr><tr><td><div>False</div></td></tr><tr><td><div>http://www.web2py.com</div></td></tr><tr><td><div>[(&lt;lazyT &#x27;Download&#x27;&gt;, False, &#x27;http://www.web2py.com/examples/default/download&#x27;), (&lt;lazyT &#x27;Support&#x27;&gt;, False, &#x27;http://www.web2py.com/examples/default/support&#x27;), (&lt;lazyT &#x27;Demo&#x27;&gt;, False, &#x27;http://web2py.com/demo_admin&#x27;), (&lt;lazyT &#x27;Quick Examples&#x27;&gt;, False, &#x27;http://web2py.com/examples/default/examples&#x27;), (&lt;lazyT &#x27;FAQ&#x27;&gt;, False, &#x27;http://web2py.com/AlterEgo&#x27;), (&lt;lazyT &#x27;Videos&#x27;&gt;, False, &#x27;http://www.web2py.com/examples/default/videos/&#x27;), (&lt;lazyT &#x27;Free Applications&#x27;&gt;, False, &#x27;http://web2py.com/appliances&#x27;), (&lt;lazyT &#x27;Plugins&#x27;&gt;, False, &#x27;http://web2py.com/plugins&#x27;), (&lt;lazyT &#x27;Layouts&#x27;&gt;, False, &#x27;http://web2py.com/layouts&#x27;), (&lt;lazyT &#x27;Recipes&#x27;&gt;, False, &#x27;http://web2pyslices.com/&#x27;), (&lt;lazyT &#x27;Semantic&#x27;&gt;, False, &#x27;http://web2py.com/semantic&#x27;)]</div></td></tr></table></div></td></tr><tr><td><div><table><tr><td><div>Documentation</div></td></tr><tr><td><div>False</div></td></tr><tr><td><div>http://www.web2py.com/book</div></td></tr><tr><td><div>[(&lt;lazyT &#x27;Preface&#x27;&gt;, False, &#x27;http://www.web2py.com/book/default/chapter/00&#x27;), (&lt;lazyT &#x27;Introduction&#x27;&gt;, False, &#x27;http://www.web2py.com/book/default/chapter/01&#x27;), (&lt;lazyT &#x27;Python&#x27;&gt;, False, &#x27;http://www.web2py.com/book/default/chapter/02&#x27;), (&lt;lazyT &#x27;Overview&#x27;&gt;, False, &#x27;http://www.web2py.com/book/default/chapter/03&#x27;), (&lt;lazyT &#x27;The Core&#x27;&gt;, False, &#x27;http://www.web2py.com/book/default/chapter/04&#x27;), (&lt;lazyT &#x27;The Views&#x27;&gt;, False, &#x27;http://www.web2py.com/book/default/chapter/05&#x27;), (&lt;lazyT &#x27;Database&#x27;&gt;, False, &#x27;http://www.web2py.com/book/default/chapter/06&#x27;), (&lt;lazyT &#x27;Forms and Validators&#x27;&gt;, False, &#x27;http://www.web2py.com/book/default/chapter/07&#x27;), (&lt;lazyT &#x27;Email and SMS&#x27;&gt;, False, &#x27;http://www.web2py.com/book/default/chapter/08&#x27;), (&lt;lazyT &#x27;Access Control&#x27;&gt;, False, &#x27;http://www.web2py.com/book/default/chapter/09&#x27;), (&lt;lazyT &#x27;Services&#x27;&gt;, False, &#x27;http://www.web2py.com/book/default/chapter/10&#x27;), (&lt;lazyT &#x27;Ajax Recipes&#x27;&gt;, False, &#x27;http://www.web2py.com/book/default/chapter/11&#x27;), (&lt;lazyT &#x27;Components and Plugins&#x27;&gt;, False, &#x27;http://www.web2py.com/book/default/chapter/12&#x27;), (&lt;lazyT &#x27;Deployment Recipes&#x27;&gt;, False, &#x27;http://www.web2py.com/book/default/chapter/13&#x27;), (&lt;lazyT &#x27;Other Recipes&#x27;&gt;, False, &#x27;http://www.web2py.com/book/default/chapter/14&#x27;), (&lt;lazyT &#x27;Buy this book&#x27;&gt;, False, &#x27;http://stores.lulu.com/web2py&#x27;)]</div></td></tr></table></div></td></tr><tr><td><div><table><tr><td><div>Community</div></td></tr><tr><td><div>False</div></td></tr><tr><td><div>None</div></td></tr><tr><td><div>[(&lt;lazyT &#x27;Groups&#x27;&gt;, False, &#x27;http://www.web2py.com/examples/default/usergroups&#x27;), (&lt;lazyT &#x27;Twitter&#x27;&gt;, False, &#x27;http://twitter.com/web2py&#x27;), (&lt;lazyT &#x27;Live Chat&#x27;&gt;, False, &#x27;http://webchat.freenode.net/?channels=web2py&#x27;)]</div></td></tr></table></div></td></tr><tr><td><div><table><tr><td><div>Plugins</div></td></tr><tr><td><div>False</div></td></tr><tr><td><div>None</div></td></tr><tr><td><div>[(&#x27;plugin_wiki&#x27;, False, &#x27;http://web2py.com/examples/default/download&#x27;), (&lt;lazyT &#x27;Other Plugins&#x27;&gt;, False, &#x27;http://web2py.com/plugins&#x27;), (&lt;lazyT &#x27;Layout Plugins&#x27;&gt;, False, &#x27;http://web2py.com/layouts&#x27;)]</div></td></tr></table></div></td></tr></table></div></td></tr></table></div></td></tr></table></div></td></tr><tr><td style="font-weight:bold;vertical-align:top;">meta</td><td style="vertical-align:top;">:</td><td><div><table><tr><td style="font-weight:bold;vertical-align:top;">author</td><td style="vertical-align:top;">:</td><td><div>Your Name &lt;you@example.com&gt;</div></td></tr><tr><td style="font-weight:bold;vertical-align:top;">generator</td><td style="vertical-align:top;">:</td><td><div>Web2py Web Framework</div></td></tr><tr><td style="font-weight:bold;vertical-align:top;">keywords</td><td style="vertical-align:top;">:</td><td><div>web2py, python, framework</div></td></tr></table></div></td></tr><tr><td style="font-weight:bold;vertical-align:top;">models_to_run</td><td style="vertical-align:top;">:</td><td><div><table><tr><td><div>^\\w+\\.py$</div></td></tr><tr><td><div>^default/\\w+\\.py$</div></td></tr><tr><td><div>^default/index/\\w+\\.py$</div></td></tr></table></div></td></tr><tr><td style="font-weight:bold;vertical-align:top;">postprocessing</td><td style="vertical-align:top;">:</td><td><div><table></table></div></td></tr><tr><td style="font-weight:bold;vertical-align:top;">session_client</td><td style="vertical-align:top;">:</td><td><div>127.0.0.1</div></td></tr><tr><td style="font-weight:bold;vertical-align:top;">session_cookie_compression_level</td><td style="vertical-align:top;">:</td><td><div>None</div></td></tr><tr><td style="font-weight:bold;vertical-align:top;">session_cookie_expires</td><td style="vertical-align:top;">:</td><td><div>None</div></td></tr><tr><td style="font-weight:bold;vertical-align:top;">session_cookie_key</td><td style="vertical-align:top;">:</td><td><div>None</div></td></tr><tr><td style="font-weight:bold;vertical-align:top;">session_data_name</td><td style="vertical-align:top;">:</td><td><div>session_data_regressionreport</div></td></tr><tr><td style="font-weight:bold;vertical-align:top;">session_file</td><td style="vertical-align:top;">:</td><td><div>&lt;open file &#x27;C:\\\\web2py\\\\applications\\\\RegressionReport\\\\sessions\\\\127.0.0.1-57a13436-13eb-47c8-a36e-c246b6b3d0af&#x27;, mode &#x27;rb+&#x27; at 0x0365CC80&gt;</div></td></tr><tr><td style="font-weight:bold;vertical-align:top;">session_filename</td><td style="vertical-align:top;">:</td><td><div>C:\\web2py\\applications\\RegressionReport\\sessions\\127.0.0.1-57a13436-13eb-47c8-a36e-c246b6b3d0af</div></td></tr><tr><td style="font-weight:bold;vertical-align:top;">session_hash</td><td style="vertical-align:top;">:</td><td><div>9f2acebe2ff64c7075d1dd6082afe8c6</div></td></tr><tr><td style="font-weight:bold;vertical-align:top;">session_id</td><td style="vertical-align:top;">:</td><td><div>127.0.0.1-57a13436-13eb-47c8-a36e-c246b6b3d0af</div></td></tr><tr><td style="font-weight:bold;vertical-align:top;">session_id_name</td><td style="vertical-align:top;">:</td><td><div>session_id_regressionreport</div></td></tr><tr><td style="font-weight:bold;vertical-align:top;">session_locked</td><td style="vertical-align:top;">:</td><td><div>True</div></td></tr><tr><td style="font-weight:bold;vertical-align:top;">session_masterapp</td><td style="vertical-align:top;">:</td><td><div>RegressionReport</div></td></tr><tr><td style="font-weight:bold;vertical-align:top;">session_new</td><td style="vertical-align:top;">:</td><td><div>False</div></td></tr><tr><td style="font-weight:bold;vertical-align:top;">session_storage_type</td><td style="vertical-align:top;">:</td><td><div>file</div></td></tr><tr><td style="font-weight:bold;vertical-align:top;">status</td><td style="vertical-align:top;">:</td><td><div>200</div></td></tr><tr><td style="font-weight:bold;vertical-align:top;">subtitle</td><td style="vertical-align:top;">:</td><td><div></div></td></tr><tr><td style="font-weight:bold;vertical-align:top;">title</td><td style="vertical-align:top;">:</td><td><div>Regressionreport</div></td></tr><tr><td style="font-weight:bold;vertical-align:top;">view</td><td style="vertical-align:top;">:</td><td><div>default/index.html</div></td></tr></table></div>'
tRp172
sS'locals'
p173
(dp174
S'ae'
p175
S'AttributeError("\'Row\' object has no attribute \'reviews\'",)'
p176
sS'k'
S"'reviews'"
p177
sS'm'
S'None'
p178
sS'self'
p179
S"<Row {'occurrence': 'Constant', 'reviewDate': '2...action': 'Set to Being Fixed w CR', 'notes': ''}>"
p180
sS'key'
p181
S"'reviews'"
p182
sS'_extra'
p183
S'None'
p184
sssS'traceback'
p185
S'Traceback (most recent call last):\n  File "/home/mdipierro/make_web2py/web2py/gluon/restricted.py", line 220, in restricted\n  File "C:\\web2py\\applications\\RegressionReport\\controllers/default.py", line 224, in <module>\n  File "/home/mdipierro/make_web2py/web2py/gluon/globals.py", line 385, in <lambda>\n  File "C:\\web2py\\applications\\RegressionReport\\controllers/default.py", line 89, in index\n    create=True, deletable=True, editable=True, exportclasses=exportclasses, maxtextlength=250, paginate=100, user_signature=False)\n  File "/home/mdipierro/make_web2py/web2py/gluon/sqlhtml.py", line 2091, in grid\n  File "/home/mdipierro/make_web2py/web2py/gluon/sqlhtml.py", line 2045, in buttons\n  File "C:\\web2py\\applications\\RegressionReport\\controllers/default.py", line 85, in <lambda>\n    links = [lambda row: A(row.reviews.failureId, _href=URL("default", "index/view/reviews", args=[row.reviews.failureId]))]\n  File "/home/mdipierro/make_web2py/web2py/gluon/dal.py", line 7343, in __getitem__\nAttributeError: \'Row\' object has no attribute \'reviews\'\n'
p186
s.