(dp1
S'output'
p2
S'missing "pass" in view'
p3
sS'layer'
p4
S'ParserContainer'
p5
sS'code'
p6
S'response.write(\'<h1> Hello World, welcome to the Notes App!! </h1>\\r\\n<p> You can do the following over here: </p>\\r\\n\\r\\n<h1><a href= "\', escape=False)\nresponse.write(URL(r=request, f=\'create\'))\nresponse.write(\'">Create Reviews</a></h1>\\r\\n\\r\\n\', escape=False)\nfor review in reviews:\n    response.write(\'\\r\\n<h3>\', escape=False)\n    response.write(review.failure)\n    response.write(\'</h3>\\r\\n<h4>\', escape=False)\n    response.write(review.reason)\n    response.write(\'</h4>\\r\\n<ul>\\r\\n<li><a href= "\', escape=False)\n    response.write(URL(r=request, f=\'edit\', args=review.id))\n    response.write(\'"> Edit Reviews </a></li>\\r\\n</ul>\\r\\n\', escape=False)\n    pass\nresponse.write(\'\\r\\n\\r\\n\', escape=False)\nresponse.write(form)\nresponse.write(\'\\r\\n\\r\\n<h2>Submitted Fields:</h2>\\r\\n<!--\', escape=False)\nif request.vars[\'reportFile\']:\n    response.write(\'\\r\\n    \', escape=False)\n    response.write(request.vars.reportFile.filename)\n    response.write(\'-->\\r\\n<!--\', escape=False)\n    response.write(BEAUTIFY(request.vars))\n    response.write(\'-->\\r\\n\', escape=False)'
p7
sS'snapshot'
p8
(dp9
sS'traceback'
p10
S'None\n'
p11
s.